ccopy_reg
_reconstructor
p0
(cnetworkx.classes.graph
Graph
p1
c__builtin__
object
p2
Ntp3
Rp4
(dp5
S'node'
p6
(dp7
(I7
I3
tp8
(dp9
s(I3
I35
tp10
(dp11
s(I6
I28
tp12
(dp13
s(I4
I36
tp14
(dp15
s(I7
I25
tp16
(dp17
s(I8
I5
tp18
(dp19
s(I13
I32
tp20
(dp21
s(I9
I0
tp22
(dp23
s(I10
I7
tp24
(dp25
s(I11
I22
tp26
(dp27
s(I0
I17
tp28
(dp29
s(I12
I17
tp30
(dp31
s(I1
I28
tp32
(dp33
s(I2
I27
tp34
(dp35
s(I0
I45
tp36
(dp37
s(I5
I24
tp38
(dp39
s(I3
I40
tp40
(dp41
s(I1
I40
tp42
(dp43
s(I6
I23
tp44
(dp45
s(I4
I35
tp46
(dp47
s(I2
I47
tp48
(dp49
s(I8
I38
tp50
(dp51
s(I7
I22
tp52
(dp53
s(I9
I39
tp54
(dp55
s(I6
I41
tp56
(dp57
s(I10
I36
tp58
(dp59
s(I8
I12
tp60
(dp61
s(I7
I44
tp62
(dp63
s(I11
I41
tp64
(dp65
s(I9
I9
tp66
(dp67
s(I10
I14
tp68
(dp69
s(I8
I18
tp70
(dp71
s(I11
I15
tp72
(dp73
s(I9
I19
tp74
(dp75
s(I12
I8
tp76
(dp77
s(I1
I21
tp78
(dp79
s(I13
I13
tp80
(dp81
s(I2
I18
tp82
(dp83
s(I3
I11
tp84
(dp85
s(I1
I15
tp86
(dp87
s(I4
I12
tp88
(dp89
s(I2
I12
tp90
(dp91
s(I3
I17
tp92
(dp93
s(I1
I33
tp94
(dp95
s(I6
I14
tp96
(dp97
s(I4
I42
tp98
(dp99
s(I2
I38
tp100
(dp101
s(I8
I45
tp102
(dp103
s(I7
I15
tp104
(dp105
s(I5
I43
tp106
(dp107
s(I9
I40
tp108
(dp109
s(I6
I32
tp110
(dp111
s(I4
I48
tp112
(dp113
s(I10
I47
tp114
(dp115
s(I7
I37
tp116
(dp117
s(I11
I46
tp118
(dp119
s(I12
I41
tp120
(dp121
s(I10
I9
tp122
(dp123
s(I8
I25
tp124
(dp125
s(I11
I4
tp126
(dp127
s(I9
I20
tp128
(dp129
s(I12
I7
tp130
(dp131
s(I10
I19
tp132
(dp133
s(I11
I26
tp134
(dp135
s(I12
I29
tp136
(dp137
s(I4
I11
tp138
(dp139
s(I5
I10
tp140
(dp141
s(I3
I22
tp142
(dp143
s(I6
I1
tp144
(dp145
s(I4
I17
tp146
(dp147
s(I2
I33
tp148
(dp149
s(I7
I4
tp150
(dp151
s(I5
I20
tp152
(dp153
s(I7
I34
tp154
(dp155
s(I11
I39
tp156
(dp157
s(I12
I32
tp158
(dp159
s(I8
I0
tp160
(dp161
s(I9
I29
tp162
(dp163
s(I10
I26
tp164
(dp165
s(I11
I19
tp166
(dp167
s(I0
I28
tp168
(dp169
s(I12
I20
tp170
(dp171
s(I1
I25
tp172
(dp173
s(I2
I30
tp174
(dp175
s(I3
I31
tp176
(dp177
s(I4
I24
tp178
(dp179
s(I0
I40
tp180
(dp181
s(I3
I37
tp182
(dp183
s(I6
I18
tp184
(dp185
s(I4
I38
tp186
(dp187
s(I8
I33
tp188
(dp189
s(I7
I27
tp190
(dp191
s(I5
I39
tp192
(dp193
s(I8
I7
tp194
(dp195
s(I9
I6
tp196
(dp197
s(I10
I5
tp198
(dp199
s(I11
I8
tp200
(dp201
s(I0
I19
tp202
(dp203
s(I12
I19
tp204
(dp205
s(I1
I18
tp206
(dp207
s(I13
I18
tp208
(dp209
s(I2
I25
tp210
(dp211
s(I5
I6
tp212
(dp213
s(I3
I42
tp214
(dp215
s(I1
I46
tp216
(dp217
s(I6
I21
tp218
(dp219
s(I4
I45
tp220
(dp221
s(I2
I45
tp222
(dp223
s(I8
I40
tp224
(dp225
s(I7
I16
tp226
(dp227
s(I5
I32
tp228
(dp229
s(I3
I48
tp230
(dp231
s(I9
I37
tp232
(dp233
s(I6
I47
tp234
(dp235
s(I10
I34
tp236
(dp237
s(I8
I14
tp238
(dp239
s(I7
I46
tp240
(dp241
s(I11
I43
tp242
(dp243
s(I9
I15
tp244
(dp245
s(I10
I12
tp246
(dp247
s(I8
I20
tp248
(dp249
s(I9
I17
tp250
(dp251
s(I12
I10
tp252
(dp253
s(I10
I22
tp254
(dp255
s(I13
I11
tp256
(dp257
s(I2
I16
tp258
(dp259
s(I3
I13
tp260
(dp261
s(I1
I13
tp262
(dp263
s(I4
I14
tp264
(dp265
s(I0
I38
tp266
(dp267
s(I5
I15
tp268
(dp269
s(I3
I19
tp270
(dp271
s(I1
I39
tp272
(dp273
s(I6
I12
tp274
(dp275
s(I4
I20
tp276
(dp277
s(I2
I36
tp278
(dp279
s(I7
I9
tp280
(dp281
s(I5
I41
tp282
(dp283
s(I9
I46
tp284
(dp285
s(I6
I38
tp286
(dp287
s(I10
I45
tp288
(dp289
s(I7
I39
tp290
(dp291
s(I11
I32
tp292
(dp293
s(I12
I43
tp294
(dp295
s(I8
I27
tp296
(dp297
s(I13
I42
tp298
(dp299
s(I11
I6
tp300
(dp301
s(I9
I26
tp302
(dp303
s(I10
I17
tp304
(dp305
s(I13
I4
tp306
(dp307
s(I11
I28
tp308
(dp309
s(I12
I31
tp310
(dp311
s(I13
I30
tp312
(dp313
s(I5
I8
tp314
(dp315
s(I3
I24
tp316
(dp317
s(I6
I7
tp318
(dp319
s(I4
I19
tp320
(dp321
s(I7
I6
tp322
(dp323
s(I5
I18
tp324
(dp325
s(I6
I25
tp326
(dp327
s(I7
I28
tp328
(dp329
s(I12
I34
tp330
(dp331
s(I8
I2
tp332
(dp333
s(I13
I35
tp334
(dp335
s(I9
I3
tp336
(dp337
s(I10
I24
tp338
(dp339
s(I11
I21
tp340
(dp341
s(I0
I30
tp342
(dp343
s(I12
I22
tp344
(dp345
s(I1
I31
tp346
(dp347
s(I13
I23
tp348
(dp349
s(I2
I28
tp350
(dp351
s(I4
I26
tp352
(dp353
s(I0
I42
tp354
(dp355
s(I5
I27
tp356
(dp357
s(I3
I39
tp358
(dp359
s(I1
I43
tp360
(dp361
s(I6
I16
tp362
(dp363
s(I4
I32
tp364
(dp365
s(I8
I35
tp366
(dp367
s(I7
I21
tp368
(dp369
s(I9
I34
tp370
(dp371
s(I6
I42
tp372
(dp373
s(I8
I9
tp374
(dp375
s(I9
I4
tp376
(dp377
s(I10
I3
tp378
(dp379
s(I11
I10
tp380
(dp381
s(I0
I21
tp382
(dp383
s(I12
I13
tp384
(dp385
s(I1
I16
tp386
(dp387
s(I13
I16
tp388
(dp389
s(I2
I23
tp390
(dp391
s(I0
I33
tp392
(dp393
s(I5
I4
tp394
(dp395
s(I3
I44
tp396
(dp397
s(I1
I44
tp398
(dp399
s(I6
I11
tp400
(dp401
s(I4
I47
tp402
(dp403
s(I2
I43
tp404
(dp405
s(I8
I42
tp406
(dp407
s(I7
I18
tp408
(dp409
s(I5
I46
tp410
(dp411
s(I9
I43
tp412
(dp413
s(I6
I45
tp414
(dp415
s(I10
I32
tp416
(dp417
s(I7
I40
tp418
(dp419
s(I11
I45
tp420
(dp421
s(I9
I13
tp422
(dp423
s(I12
I46
tp424
(dp425
s(I10
I10
tp426
(dp427
s(I8
I22
tp428
(dp429
s(I13
I47
tp430
(dp431
s(I11
I3
tp432
(dp433
s(I9
I23
tp434
(dp435
s(I10
I20
tp436
(dp437
s(I13
I9
tp438
(dp439
s(I11
I25
tp440
(dp441
s(I3
I15
tp442
(dp443
s(I4
I8
tp444
(dp445
s(I5
I13
tp446
(dp447
s(I3
I21
tp448
(dp449
s(I1
I37
tp450
(dp451
s(I6
I2
tp452
(dp453
s(I4
I22
tp454
(dp455
s(I2
I34
tp456
(dp457
s(I7
I11
tp458
(dp459
s(I5
I23
tp460
(dp461
s(I9
I44
tp462
(dp463
s(I10
I43
tp464
(dp465
s(I7
I33
tp466
(dp467
s(I11
I34
tp468
(dp469
s(I12
I37
tp470
(dp471
s(I8
I29
tp472
(dp473
s(I9
I24
tp474
(dp475
s(I10
I31
tp476
(dp477
s(I11
I30
tp478
(dp479
s(I0
I25
tp480
(dp481
s(I12
I25
tp482
(dp483
s(I3
I26
tp484
(dp485
s(I6
I5
tp486
(dp487
s(I4
I29
tp488
(dp489
s(I7
I0
tp490
(dp491
s(I5
I16
tp492
(dp493
s(I3
I32
tp494
(dp495
s(I7
I30
tp496
(dp497
s(I8
I4
tp498
(dp499
s(I13
I33
tp500
(dp501
s(I9
I1
tp502
(dp503
s(I10
I6
tp504
(dp505
s(I11
I23
tp506
(dp507
s(I0
I16
tp508
(dp509
s(I12
I16
tp510
(dp511
s(I1
I29
tp512
(dp513
s(I2
I26
tp514
(dp515
s(I0
I44
tp516
(dp517
s(I5
I25
tp518
(dp519
s(I3
I41
tp520
(dp521
s(I1
I41
tp522
(dp523
s(I6
I22
tp524
(dp525
s(I4
I34
tp526
(dp527
s(I2
I46
tp528
(dp529
s(I8
I37
tp530
(dp531
s(I7
I23
tp532
(dp533
s(I5
I35
tp534
(dp535
s(I9
I32
tp536
(dp537
s(I6
I40
tp538
(dp539
s(I10
I39
tp540
(dp541
s(I8
I11
tp542
(dp543
s(I7
I45
tp544
(dp545
s(I9
I10
tp546
(dp547
s(I10
I1
tp548
(dp549
s(I8
I17
tp550
(dp551
s(I11
I12
tp552
(dp553
s(I0
I23
tp554
(dp555
s(I12
I15
tp556
(dp557
s(I1
I22
tp558
(dp559
s(I13
I14
tp560
(dp561
s(I2
I21
tp562
(dp563
s(I2
I15
tp564
(dp565
s(I0
I35
tp566
(dp567
s(I3
I46
tp568
(dp569
s(I1
I34
tp570
(dp571
s(I6
I9
tp572
(dp573
s(I4
I41
tp574
(dp575
s(I2
I41
tp576
(dp577
s(I8
I44
tp578
(dp579
s(I7
I12
tp580
(dp581
s(I5
I44
tp582
(dp583
s(I9
I41
tp584
(dp585
s(I6
I35
tp586
(dp587
s(I10
I46
tp588
(dp589
s(I7
I42
tp590
(dp591
s(I11
I47
tp592
(dp593
s(I12
I40
tp594
(dp595
s(I10
I8
tp596
(dp597
s(I8
I24
tp598
(dp599
s(I11
I5
tp600
(dp601
s(I9
I21
tp602
(dp603
s(I12
I6
tp604
(dp605
s(I10
I18
tp606
(dp607
s(I13
I7
tp608
(dp609
s(I11
I27
tp610
(dp611
s(I12
I28
tp612
(dp613
s(I4
I10
tp614
(dp615
s(I5
I11
tp616
(dp617
s(I3
I23
tp618
(dp619
s(I4
I16
tp620
(dp621
s(I2
I32
tp622
(dp623
s(I7
I5
tp624
(dp625
s(I5
I21
tp626
(dp627
s(I6
I26
tp628
(dp629
s(I10
I41
tp630
(dp631
s(I7
I35
tp632
(dp633
s(I11
I36
tp634
(dp635
s(I8
I31
tp636
(dp637
s(I9
I30
tp638
(dp639
s(I10
I29
tp640
(dp641
s(I11
I16
tp642
(dp643
s(I0
I27
tp644
(dp645
s(I12
I27
tp646
(dp647
s(I1
I26
tp648
(dp649
s(I3
I28
tp650
(dp651
s(I4
I31
tp652
(dp653
s(I7
I2
tp654
(dp655
s(I5
I30
tp656
(dp657
s(I3
I34
tp658
(dp659
s(I4
I37
tp660
(dp661
s(I8
I32
tp662
(dp663
s(I7
I24
tp664
(dp665
s(I8
I6
tp666
(dp667
s(I9
I7
tp668
(dp669
s(I10
I4
tp670
(dp671
s(I11
I9
tp672
(dp673
s(I0
I18
tp674
(dp675
s(I12
I18
tp676
(dp677
s(I1
I19
tp678
(dp679
s(I2
I24
tp680
(dp681
s(I5
I7
tp682
(dp683
s(I3
I43
tp684
(dp685
s(I1
I47
tp686
(dp687
s(I6
I20
tp688
(dp689
s(I4
I44
tp690
(dp691
s(I2
I44
tp692
(dp693
s(I8
I39
tp694
(dp695
s(I7
I17
tp696
(dp697
s(I9
I38
tp698
(dp699
s(I6
I46
tp700
(dp701
s(I10
I37
tp702
(dp703
s(I8
I13
tp704
(dp705
s(I11
I40
tp706
(dp707
s(I9
I8
tp708
(dp709
s(I10
I15
tp710
(dp711
s(I8
I19
tp712
(dp713
s(I11
I14
tp714
(dp715
s(I9
I18
tp716
(dp717
s(I12
I9
tp718
(dp719
s(I1
I20
tp720
(dp721
s(I13
I12
tp722
(dp723
s(I2
I19
tp724
(dp725
s(I0
I15
tp726
(dp727
s(I3
I10
tp728
(dp729
s(I1
I14
tp730
(dp731
s(I4
I13
tp732
(dp733
s(I2
I13
tp734
(dp735
s(I3
I16
tp736
(dp737
s(I1
I32
tp738
(dp739
s(I6
I15
tp740
(dp741
s(I4
I43
tp742
(dp743
s(I2
I39
tp744
(dp745
s(I7
I14
tp746
(dp747
s(I5
I42
tp748
(dp749
s(I10
I44
tp750
(dp751
s(I7
I36
tp752
(dp753
s(I11
I33
tp754
(dp755
s(I12
I42
tp756
(dp757
s(I8
I26
tp758
(dp759
s(I11
I7
tp760
(dp761
s(I9
I27
tp762
(dp763
s(I10
I16
tp764
(dp765
s(I13
I5
tp766
(dp767
s(I11
I29
tp768
(dp769
s(I12
I30
tp770
(dp771
s(I13
I31
tp772
(dp773
s(I5
I9
tp774
(dp775
s(I3
I25
tp776
(dp777
s(I6
I6
tp778
(dp779
s(I4
I18
tp780
(dp781
s(I7
I7
tp782
(dp783
s(I5
I19
tp784
(dp785
s(I6
I24
tp786
(dp787
s(I7
I29
tp788
(dp789
s(I11
I38
tp790
(dp791
s(I12
I33
tp792
(dp793
s(I8
I1
tp794
(dp795
s(I9
I28
tp796
(dp797
s(I10
I27
tp798
(dp799
s(I11
I18
tp800
(dp801
s(I0
I29
tp802
(dp803
s(I12
I21
tp804
(dp805
s(I1
I24
tp806
(dp807
s(I2
I31
tp808
(dp809
s(I3
I30
tp810
(dp811
s(I4
I25
tp812
(dp813
s(I0
I41
tp814
(dp815
s(I3
I36
tp816
(dp817
s(I6
I19
tp818
(dp819
s(I4
I39
tp820
(dp821
s(I8
I34
tp822
(dp823
s(I7
I26
tp824
(dp825
s(I5
I38
tp826
(dp827
s(I9
I35
tp828
(dp829
s(I8
I8
tp830
(dp831
s(I9
I5
tp832
(dp833
s(I10
I2
tp834
(dp835
s(I11
I11
tp836
(dp837
s(I0
I20
tp838
(dp839
s(I12
I12
tp840
(dp841
s(I1
I17
tp842
(dp843
s(I13
I17
tp844
(dp845
s(I2
I22
tp846
(dp847
s(I2
I48
tp848
(dp849
s(I5
I5
tp850
(dp851
s(I3
I45
tp852
(dp853
s(I1
I45
tp854
(dp855
s(I6
I10
tp856
(dp857
s(I4
I46
tp858
(dp859
s(I2
I42
tp860
(dp861
s(I8
I41
tp862
(dp863
s(I7
I19
tp864
(dp865
s(I5
I47
tp866
(dp867
s(I9
I36
tp868
(dp869
s(I6
I44
tp870
(dp871
s(I10
I35
tp872
(dp873
s(I8
I15
tp874
(dp875
s(I7
I41
tp876
(dp877
s(I11
I42
tp878
(dp879
s(I9
I14
tp880
(dp881
s(I10
I13
tp882
(dp883
s(I8
I21
tp884
(dp885
s(I13
I48
tp886
(dp887
s(I9
I16
tp888
(dp889
s(I12
I11
tp890
(dp891
s(I10
I23
tp892
(dp893
s(I13
I10
tp894
(dp895
s(I2
I17
tp896
(dp897
s(I3
I12
tp898
(dp899
s(I4
I15
tp900
(dp901
s(I2
I11
tp902
(dp903
s(I0
I39
tp904
(dp905
s(I5
I14
tp906
(dp907
s(I3
I18
tp908
(dp909
s(I1
I38
tp910
(dp911
s(I6
I13
tp912
(dp913
s(I4
I21
tp914
(dp915
s(I2
I37
tp916
(dp917
s(I7
I8
tp918
(dp919
s(I5
I40
tp920
(dp921
s(I6
I39
tp922
(dp923
s(I10
I42
tp924
(dp925
s(I7
I38
tp926
(dp927
s(I11
I35
tp928
(dp929
s(I8
I28
tp930
(dp931
s(I9
I25
tp932
(dp933
s(I10
I30
tp934
(dp935
s(I11
I31
tp936
(dp937
s(I0
I24
tp938
(dp939
s(I12
I24
tp940
(dp941
s(I13
I29
tp942
(dp943
s(I3
I27
tp944
(dp945
s(I6
I4
tp946
(dp947
s(I4
I28
tp948
(dp949
s(I7
I1
tp950
(dp951
s(I5
I17
tp952
(dp953
s(I3
I33
tp954
(dp955
s(I6
I30
tp956
(dp957
s(I7
I31
tp958
(dp959
s(I12
I35
tp960
(dp961
s(I8
I3
tp962
(dp963
s(I13
I34
tp964
(dp965
s(I9
I2
tp966
(dp967
s(I10
I25
tp968
(dp969
s(I11
I20
tp970
(dp971
s(I0
I31
tp972
(dp973
s(I12
I23
tp974
(dp975
s(I1
I30
tp976
(dp977
s(I2
I29
tp978
(dp979
s(I1
I48
tp980
(dp981
s(I4
I27
tp982
(dp983
s(I0
I43
tp984
(dp985
s(I5
I26
tp986
(dp987
s(I3
I38
tp988
(dp989
s(I1
I42
tp990
(dp991
s(I6
I17
tp992
(dp993
s(I4
I33
tp994
(dp995
s(I8
I36
tp996
(dp997
s(I7
I20
tp998
(dp999
s(I9
I33
tp1000
(dp1001
s(I6
I43
tp1002
(dp1003
s(I10
I38
tp1004
(dp1005
s(I8
I10
tp1006
(dp1007
s(I9
I11
tp1008
(dp1009
s(I8
I16
tp1010
(dp1011
s(I11
I13
tp1012
(dp1013
s(I0
I22
tp1014
(dp1015
s(I12
I14
tp1016
(dp1017
s(I1
I23
tp1018
(dp1019
s(I13
I15
tp1020
(dp1021
s(I2
I20
tp1022
(dp1023
s(I3
I9
tp1024
(dp1025
s(I2
I14
tp1026
(dp1027
s(I0
I34
tp1028
(dp1029
s(I5
I3
tp1030
(dp1031
s(I3
I47
tp1032
(dp1033
s(I1
I35
tp1034
(dp1035
s(I6
I8
tp1036
(dp1037
s(I4
I40
tp1038
(dp1039
s(I2
I40
tp1040
(dp1041
s(I8
I43
tp1042
(dp1043
s(I7
I13
tp1044
(dp1045
s(I5
I45
tp1046
(dp1047
s(I9
I42
tp1048
(dp1049
s(I10
I33
tp1050
(dp1051
s(I7
I43
tp1052
(dp1053
s(I9
I12
tp1054
(dp1055
s(I10
I11
tp1056
(dp1057
s(I8
I23
tp1058
(dp1059
s(I11
I2
tp1060
(dp1061
s(I9
I22
tp1062
(dp1063
s(I10
I21
tp1064
(dp1065
s(I13
I8
tp1066
(dp1067
s(I11
I24
tp1068
(dp1069
s(I3
I14
tp1070
(dp1071
s(I4
I9
tp1072
(dp1073
s(I5
I12
tp1074
(dp1075
s(I3
I20
tp1076
(dp1077
s(I1
I36
tp1078
(dp1079
s(I6
I3
tp1080
(dp1081
s(I4
I23
tp1082
(dp1083
s(I2
I35
tp1084
(dp1085
s(I7
I10
tp1086
(dp1087
s(I5
I22
tp1088
(dp1089
s(I10
I40
tp1090
(dp1091
s(I7
I32
tp1092
(dp1093
s(I11
I37
tp1094
(dp1095
s(I8
I30
tp1096
(dp1097
s(I9
I31
tp1098
(dp1099
s(I10
I28
tp1100
(dp1101
s(I11
I17
tp1102
(dp1103
s(I0
I26
tp1104
(dp1105
s(I12
I26
tp1106
(dp1107
s(I1
I27
tp1108
(dp1109
s(I13
I27
tp1110
(dp1111
s(I3
I29
tp1112
(dp1113
s(I4
I30
tp1114
(dp1115
ssS'edge'
p1116
(dp1117
g8
(dp1118
sg10
(dp1119
sg12
(dp1120
sg14
(dp1121
sg16
(dp1122
(I9
I26
tp1123
(dp1124
S'weight'
p1125
F7.0
ss(I3
I24
tp1126
(dp1127
g1125
F10.0
ss(I4
I19
tp1128
(dp1129
g1125
F16.0
ssg602
(dp1130
g1125
F14.0
ss(I5
I18
tp1131
(dp1132
g1125
F13.0
ss(I7
I28
tp1133
(dp1134
g1125
F6.0
ss(I2
I27
tp1135
(dp1136
g1125
F9.0
ss(I8
I34
tp1137
(dp1138
g1125
F9.0
ss(I6
I23
tp1139
(dp1140
g1125
F7.0
ssg626
(dp1141
g1125
F11.0
ss(I2
I28
tp1142
(dp1143
g1125
F6.0
ss(I9
I29
tp1144
(dp1145
g1125
F12.0
ssg636
(dp1146
g1125
F11.0
ss(I4
I26
tp1147
(dp1148
g1125
F9.0
ssg640
(dp1149
g1125
F7.0
ss(I3
I28
tp1150
(dp1151
g1125
F6.0
ss(I8
I28
tp1152
(dp1153
g1125
F7.0
ss(I9
I25
tp1154
(dp1155
g1125
F7.0
ss(I8
I32
tp1156
(dp1157
g1125
F9.0
ss(I7
I31
tp1158
(dp1159
g1125
F6.0
ss(I1
I25
tp1160
(dp1161
g1125
F6.0
ss(I8
I22
tp1162
(dp1163
g1125
F29.0
ssg146
(dp1164
g1125
F9.0
ssg434
(dp1165
g1125
F6.0
ss(I10
I35
tp1166
(dp1167
g1125
F7.0
ss(I4
I22
tp1168
(dp1169
g1125
F10.0
ss(I9
I34
tp1170
(dp1171
g1125
F6.0
ssg178
(dp1172
g1125
F28.0
ssg474
(dp1173
g1125
F7.0
ssg184
(dp1174
g1125
F6.0
ss(I8
I33
tp1175
(dp1176
g1125
F8.0
ss(I2
I20
tp1177
(dp1178
g1125
F8.0
ss(I3
I26
tp1179
(dp1180
g1125
F20.0
ss(I2
I14
tp1181
(dp1182
g1125
F6.0
ss(I5
I16
tp1183
(dp1184
g1125
F7.0
ss(I3
I32
tp1185
(dp1186
g1125
F6.0
ss(I11
I29
tp1187
(dp1188
g1125
F10.0
ss(I12
I30
tp1189
(dp1190
g1125
F7.0
ss(I8
I23
tp1191
(dp1192
g1125
F12.0
ss(I9
I22
tp1193
(dp1194
g1125
F9.0
ss(I6
I21
tp1195
(dp1196
g1125
F10.0
ssg784
(dp1197
g1125
F7.0
ss(I11
I24
tp1198
(dp1199
g1125
F6.0
ss(I4
I23
tp1200
(dp1201
g1125
F6.0
ss(I6
I22
tp1202
(dp1203
g1125
F13.0
ss(I5
I22
tp1204
(dp1205
g1125
F6.0
ss(I7
I23
tp1206
(dp1207
g1125
F6.0
ssg536
(dp1208
g1125
F6.0
ss(I8
I30
tp1209
(dp1210
g1125
F17.0
ssg812
(dp1211
g1125
F6.0
ss(I4
I20
tp1212
(dp1213
g1125
F19.0
sssg18
(dp1214
(I5
I4
tp1215
(dp1216
g1125
F12.0
ssg778
(dp1217
g1125
F6.0
sssg20
(dp1218
sg22
(dp1219
sg24
(dp1220
sg26
(dp1221
(I9
I21
tp1222
(dp1223
g1125
F6.0
ss(I5
I18
tp1224
(dp1225
g1125
F8.0
ss(I12
I18
tp1226
(dp1227
g1125
F6.0
ss(I12
I30
tp1228
(dp1229
g1125
F6.0
ss(I5
I22
tp1230
(dp1231
g1125
F6.0
sssg28
(dp1232
sg30
(dp1233
(I5
I18
tp1234
(dp1235
g1125
F6.0
ss(I10
I24
tp1236
(dp1237
g1125
F7.0
ss(I10
I19
tp1238
(dp1239
g1125
F8.0
ss(I12
I30
tp1240
(dp1241
g1125
F6.0
ssg792
(dp1242
g1125
F7.0
sssg32
(dp1243
(I3
I32
tp1244
(dp1245
g1125
F6.0
sssg34
(dp1246
(I7
I25
tp1247
g1136
s(I8
I24
tp1248
(dp1249
g1125
F12.0
ss(I6
I23
tp1250
(dp1251
g1125
F7.0
ssg806
(dp1252
g1125
F8.0
ss(I4
I31
tp1253
(dp1254
g1125
F9.0
ssg658
(dp1255
g1125
F8.0
ss(I8
I32
tp1256
(dp1257
g1125
F6.0
ss(I7
I24
tp1258
(dp1259
g1125
F9.0
ss(I2
I24
tp1260
(dp1261
g1125
F6.0
ssg1160
(dp1262
g1125
F8.0
ss(I2
I30
tp1263
(dp1264
g1125
F7.0
ss(I3
I31
tp1265
(dp1266
g1125
F8.0
ss(I4
I24
tp1267
(dp1268
g1125
F6.0
ss(I8
I23
tp1269
(dp1270
g1125
F6.0
ss(I6
I24
tp1271
(dp1272
g1125
F6.0
ss(I5
I22
tp1273
(dp1274
g1125
F6.0
ss(I7
I23
tp1275
(dp1276
g1125
F6.0
ss(I2
I31
tp1277
(dp1278
g1125
F8.0
ss(I3
I30
tp1279
(dp1280
g1125
F7.0
ss(I8
I30
tp1281
(dp1282
g1125
F6.0
ss(I0
I26
tp1283
(dp1284
g1125
F11.0
sssg36
(dp1285
sg38
(dp1286
(I12
I31
tp1287
(dp1288
g1125
F6.0
ss(I8
I24
tp1289
(dp1290
g1125
F8.0
ss(I4
I19
tp1291
(dp1292
g1125
F17.0
ss(I9
I21
tp1293
(dp1294
g1125
F11.0
ss(I5
I18
tp1295
(dp1296
g1125
F17.0
ss(I8
I21
tp1297
(dp1298
g1125
F7.0
ss(I5
I21
tp1299
(dp1300
g1125
F7.0
ss(I9
I29
tp1301
(dp1302
g1125
F9.0
ss(I8
I31
tp1303
(dp1304
g1125
F9.0
ss(I9
I19
tp1305
(dp1306
g1125
F6.0
ss(I7
I21
tp1307
(dp1308
g1125
F6.0
ssg82
(dp1309
g1125
F6.0
ss(I8
I28
tp1310
(dp1311
g1125
F9.0
ss(I8
I32
tp1312
(dp1313
g1125
F8.0
ssg390
(dp1314
g1125
F6.0
ss(I8
I25
tp1315
(dp1316
g1125
F7.0
ss(I8
I22
tp1317
(dp1318
g1125
F21.0
ss(I4
I17
tp1319
(dp1320
g1125
F6.0
ss(I9
I23
tp1321
(dp1322
g1125
F12.0
ss(I5
I20
tp1323
(dp1324
g1125
F8.0
ss(I4
I24
tp1325
(dp1326
g1125
F6.0
ss(I1
I23
tp1327
(dp1328
g1125
F7.0
ss(I11
I29
tp1329
(dp1330
g1125
F6.0
ss(I1
I18
tp1331
(dp1332
g1125
F6.0
ssg1240
(dp1333
g1125
F7.0
ss(I8
I23
tp1334
(dp1335
g1125
F8.0
ss(I9
I22
tp1336
(dp1337
g1125
F8.0
ss(I5
I22
tp1338
(dp1339
g1125
F12.0
ss(I7
I23
tp1340
(dp1341
g1125
F6.0
ss(I9
I32
tp1342
(dp1343
g1125
F7.0
ss(I4
I25
tp1344
(dp1345
g1125
F6.0
ssg276
(dp1346
g1125
F11.0
ss(I3
I29
tp1347
(dp1348
g1125
F6.0
sssg40
(dp1349
sg42
(dp1350
(I2
I32
tp1351
(dp1352
g1125
F6.0
ssg1142
(dp1353
g1125
F6.0
ss(I2
I33
tp1354
(dp1355
g1125
F6.0
ss(I2
I29
tp1356
(dp1357
g1125
F14.0
ss(I2
I34
tp1358
(dp1359
g1125
F11.0
sssg44
(dp1360
(I7
I25
tp1361
g1140
s(I2
I22
tp1362
(dp1363
g1125
F7.0
ssg1126
(dp1364
g1125
F6.0
ss(I4
I19
tp1365
(dp1366
g1125
F23.0
ss(I9
I21
tp1367
(dp1368
g1125
F16.0
ss(I5
I18
tp1369
(dp1370
g1125
F40.0
ss(I7
I19
tp1371
(dp1372
g1125
F8.0
ssg1135
g1251
s(I8
I21
tp1373
(dp1374
g1125
F34.0
ss(I10
I24
tp1375
(dp1376
g1125
F6.0
ss(I6
I23
tp1377
(dp1378
g1125
F6.0
ss(I5
I21
tp1379
(dp1380
g1125
F12.0
ss(I10
I22
tp1381
(dp1382
g1125
F7.0
ss(I8
I18
tp1383
(dp1384
g1125
F9.0
ss(I6
I13
tp1385
(dp1386
g1125
F10.0
ss(I9
I19
tp1387
(dp1388
g1125
F7.0
ss(I6
I16
tp1389
(dp1390
g1125
F7.0
ss(I1
I21
tp1391
(dp1392
g1125
F6.0
ss(I7
I21
tp1393
(dp1394
g1125
F10.0
ss(I3
I28
tp1395
(dp1396
g1125
F6.0
ss(I9
I25
tp1397
(dp1398
g1125
F7.0
ss(I8
I25
tp1399
(dp1400
g1125
F6.0
ss(I5
I4
tp1401
(dp1402
g1125
F8.0
ss(I9
I20
tp1403
(dp1404
g1125
F9.0
ss(I7
I1
tp1405
(dp1406
g1125
F7.0
ss(I5
I17
tp1407
(dp1408
g1125
F6.0
ss(I7
I18
tp1409
(dp1410
g1125
F7.0
ss(I8
I22
tp1411
(dp1412
g1125
F51.0
ss(I4
I17
tp1413
(dp1414
g1125
F20.0
ss(I9
I23
tp1415
(dp1416
g1125
F8.0
ss(I5
I20
tp1417
(dp1418
g1125
F13.0
ss(I7
I17
tp1419
(dp1420
g1125
F8.0
ss(I8
I19
tp1421
(dp1422
g1125
F15.0
ss(I6
I17
tp1423
(dp1424
g1125
F8.0
ss(I5
I23
tp1425
(dp1426
g1125
F6.0
ss(I4
I24
tp1427
(dp1428
g1125
F7.0
ss(I9
I24
tp1429
(dp1430
g1125
F7.0
ss(I10
I31
tp1431
(dp1432
g1125
F11.0
ss(I6
I18
tp1433
(dp1434
g1125
F15.0
ss(I3
I26
tp1435
(dp1436
g1125
F7.0
ss(I1
I18
tp1437
(dp1438
g1125
F6.0
ss(I8
I23
tp1439
(dp1440
g1125
F14.0
ss(I9
I22
tp1441
(dp1442
g1125
F11.0
ss(I6
I21
tp1443
(dp1444
g1125
F8.0
ss(I5
I19
tp1445
(dp1446
g1125
F8.0
ss(I10
I21
tp1447
(dp1448
g1125
F7.0
ss(I8
I20
tp1449
(dp1450
g1125
F12.0
ss(I3
I30
tp1451
(dp1452
g1125
F8.0
ss(I4
I25
tp1453
(dp1454
g1125
F8.0
ss(I8
I17
tp1455
(dp1456
g1125
F11.0
ss(I4
I20
tp1457
(dp1458
g1125
F26.0
ss(I6
I19
tp1459
(dp1460
g1125
F9.0
sssg46
(dp1461
sg48
(dp1462
sg50
(dp1463
sg52
(dp1464
(I4
I19
tp1465
(dp1466
g1125
F20.0
ss(I6
I10
tp1467
(dp1468
g1125
F6.0
ss(I5
I18
tp1469
(dp1470
g1125
F17.0
ss(I6
I25
tp1471
(dp1472
g1125
F6.0
ss(I10
I27
tp1473
(dp1474
g1125
F6.0
ss(I10
I24
tp1475
(dp1476
g1125
F12.0
ss(I8
I31
tp1477
(dp1478
g1125
F8.0
ss(I11
I31
tp1479
(dp1480
g1125
F6.0
ss(I5
I17
tp1481
(dp1482
g1125
F8.0
ss(I4
I17
tp1483
(dp1484
g1125
F13.0
ss(I10
I25
tp1485
(dp1486
g1125
F7.0
ss(I9
I23
tp1487
(dp1488
g1125
F7.0
ss(I5
I20
tp1489
(dp1490
g1125
F6.0
ss(I5
I23
tp1491
(dp1492
g1125
F7.0
ss(I8
I29
tp1493
(dp1494
g1125
F7.0
ss(I11
I30
tp1495
(dp1496
g1125
F7.0
ss(I3
I26
tp1497
(dp1498
g1125
F6.0
ss(I8
I26
tp1499
(dp1500
g1125
F7.0
ss(I6
I24
tp1501
(dp1502
g1125
F12.0
ss(I9
I28
tp1503
(dp1504
g1125
F6.0
ss(I8
I20
tp1505
(dp1506
g1125
F6.0
ss(I4
I25
tp1507
(dp1508
g1125
F7.0
ss(I8
I17
tp1509
(dp1510
g1125
F8.0
ss(I4
I20
tp1511
(dp1512
g1125
F32.0
sssg54
(dp1513
sg56
(dp1514
sg58
(dp1515
sg60
(dp1516
(I8
I23
tp1517
(dp1518
g1125
F6.0
sssg62
(dp1519
sg64
(dp1520
sg66
(dp1521
(I7
I5
tp1522
(dp1523
g1125
F6.0
ss(I8
I22
tp1524
(dp1525
g1125
F8.0
sssg68
(dp1526
(I9
I21
tp1527
(dp1528
g1125
F11.0
ss(I10
I3
tp1529
(dp1530
g1125
F6.0
ss(I8
I16
tp1531
(dp1532
g1125
F8.0
sssg70
(dp1533
(I8
I24
tp1534
(dp1535
g1125
F12.0
ss(I4
I19
tp1536
(dp1537
g1125
F7.0
ss(I9
I21
tp1538
(dp1539
g1125
F21.0
ssg1131
(dp1540
g1125
F17.0
ss(I8
I15
tp1541
(dp1542
g1125
F6.0
ss(I8
I21
tp1543
(dp1544
g1125
F20.0
ss(I10
I24
tp1545
(dp1546
g1125
F9.0
ss(I9
I16
tp1547
(dp1548
g1125
F6.0
ss(I6
I23
tp1549
g1384
s(I10
I23
tp1550
(dp1551
g1125
F8.0
ssg72
(dp1552
g1125
F11.0
ss(I6
I16
tp1553
(dp1554
g1125
F7.0
ss(I9
I25
tp1555
(dp1556
g1125
F7.0
ss(I8
I32
tp1557
(dp1558
g1125
F6.0
ss(I8
I25
tp1559
(dp1560
g1125
F21.0
ss(I9
I20
tp1561
(dp1562
g1125
F10.0
ss(I5
I17
tp1563
(dp1564
g1125
F16.0
ss(I9
I13
tp1565
(dp1566
g1125
F8.0
ss(I8
I22
tp1567
(dp1568
g1125
F25.0
ss(I9
I23
tp1569
(dp1570
g1125
F9.0
ss(I6
I20
tp1571
(dp1572
g1125
F10.0
ss(I10
I15
tp1573
(dp1574
g1125
F6.0
ss(I6
I17
tp1575
(dp1576
g1125
F8.0
ss(I11
I19
tp1577
(dp1578
g1125
F11.0
ss(I4
I13
tp1579
(dp1580
g1125
F6.0
ss(I6
I18
tp1581
(dp1582
g1125
F6.0
ss(I8
I26
tp1583
(dp1584
g1125
F6.0
ss(I9
I12
tp1585
(dp1586
g1125
F7.0
ss(I8
I23
tp1587
(dp1588
g1125
F17.0
ss(I9
I22
tp1589
(dp1590
g1125
F8.0
ss(I6
I21
tp1591
(dp1592
g1125
F7.0
ss(I5
I19
tp1593
(dp1594
g1125
F8.0
ss(I6
I24
tp1595
(dp1596
g1125
F9.0
ss(I8
I20
tp1597
(dp1598
g1125
F20.0
ss(I11
I18
tp1599
(dp1600
g1125
F6.0
ss(I10
I22
tp1601
(dp1602
g1125
F6.0
ss(I5
I15
tp1603
(dp1604
g1125
F8.0
sssg72
(dp1605
g1383
g1552
s(I6
I20
tp1606
(dp1607
g1125
F6.0
ss(I8
I14
tp1608
(dp1609
g1125
F6.0
ss(I11
I18
tp1610
(dp1611
g1125
F6.0
sssg74
(dp1612
g304
(dp1613
g1125
F7.0
ss(I8
I24
tp1614
(dp1615
g1125
F13.0
ss(I9
I21
tp1616
(dp1617
g1125
F16.0
ss(I5
I18
tp1618
(dp1619
g1125
F12.0
ss(I8
I15
tp1620
(dp1621
g1125
F7.0
ss(I9
I14
tp1622
(dp1623
g1125
F6.0
ss(I5
I24
tp1624
g1306
s(I10
I24
tp1625
(dp1626
g1125
F9.0
ss(I9
I16
tp1627
(dp1628
g1125
F8.0
ss(I6
I23
tp1629
g1388
s(I10
I23
tp1630
(dp1631
g1125
F8.0
ss(I6
I16
tp1632
(dp1633
g1125
F6.0
ss(I7
I21
tp1634
(dp1635
g1125
F8.0
ss(I8
I25
tp1636
(dp1637
g1125
F14.0
ss(I5
I17
tp1638
(dp1639
g1125
F7.0
ss(I9
I23
tp1640
(dp1641
g1125
F14.0
ss(I6
I20
tp1642
(dp1643
g1125
F7.0
ss(I7
I17
tp1644
(dp1645
g1125
F6.0
ss(I11
I19
tp1646
(dp1647
g1125
F8.0
ss(I9
I24
tp1648
(dp1649
g1125
F8.0
ss(I8
I16
tp1650
(dp1651
g1125
F14.0
ss(I10
I16
tp1652
(dp1653
g1125
F8.0
ss(I9
I1
tp1654
(dp1655
g1125
F6.0
ss(I8
I23
tp1656
(dp1657
g1125
F9.0
ss(I9
I22
tp1658
(dp1659
g1125
F12.0
ss(I6
I24
tp1660
(dp1661
g1125
F6.0
ss(I8
I20
tp1662
(dp1663
g1125
F7.0
ss(I10
I22
tp1664
(dp1665
g1125
F7.0
ss(I7
I23
tp1666
(dp1667
g1125
F8.0
ss(I8
I17
tp1668
(dp1669
g1125
F8.0
ss(I6
I19
tp1670
(dp1671
g1125
F9.0
sssg76
(dp1672
sg78
(dp1673
(I5
I18
tp1674
(dp1675
g1125
F6.0
ss(I6
I23
tp1676
g1392
s(I5
I21
tp1677
(dp1678
g1125
F8.0
ssg1168
(dp1679
g1125
F13.0
ss(I4
I24
tp1680
(dp1681
g1125
F9.0
ssg1338
(dp1682
g1125
F7.0
sssg80
(dp1683
sg82
(dp1684
(I8
I21
tp1685
(dp1686
g1125
F6.0
ss(I5
I24
tp1687
g1309
s(I6
I4
tp1688
(dp1689
g1125
F12.0
ss(I5
I20
tp1690
(dp1691
g1125
F6.0
ss(I8
I16
tp1692
(dp1693
g1125
F8.0
ssg1459
(dp1694
g1125
F7.0
sssg84
(dp1695
(I6
I4
tp1696
(dp1697
g1125
F8.0
ss(I5
I13
tp1698
(dp1699
g1125
F7.0
sssg86
(dp1700
g1128
(dp1701
g1125
F10.0
ssg1131
(dp1702
g1125
F8.0
ss(I4
I10
tp1703
(dp1704
g1125
F9.0
ss(I8
I21
tp1705
(dp1706
g1125
F14.0
ss(I4
I15
tp1707
(dp1708
g1125
F13.0
ss(I6
I16
tp1709
(dp1710
g1125
F7.0
ss(I5
I17
tp1711
(dp1712
g1125
F10.0
ss(I10
I32
tp1713
(dp1714
g1125
F8.0
ss(I4
I17
tp1715
(dp1716
g1125
F26.0
ssg1423
(dp1717
g1125
F6.0
ss(I4
I13
tp1718
(dp1719
g1125
F12.0
ss(I8
I16
tp1720
(dp1721
g1125
F6.0
ss(I6
I15
tp1722
(dp1723
g1125
F6.0
ss(I5
I16
tp1724
(dp1725
g1125
F6.0
ss(I6
I24
tp1726
(dp1727
g1125
F6.0
ss(I4
I14
tp1728
(dp1729
g1125
F6.0
ss(I3
I19
tp1730
(dp1731
g1125
F13.0
ss(I6
I12
tp1732
(dp1733
g1125
F6.0
sssg88
(dp1734
(I6
I4
tp1735
(dp1736
g1125
F6.0
ss(I8
I22
tp1737
(dp1738
g1125
F7.0
ss(I8
I20
tp1739
(dp1740
g1125
F6.0
sssg90
(dp1741
sg92
(dp1742
(I3
I24
tp1743
(dp1744
g1125
F6.0
sssg94
(dp1745
(I8
I30
tp1746
(dp1747
g1125
F6.0
ss(I1
I30
tp1748
(dp1749
g1125
F6.0
sssg96
(dp1750
(I8
I24
tp1751
(dp1752
g1125
F7.0
ss(I9
I21
tp1753
(dp1754
g1125
F6.0
ss(I5
I18
tp1755
(dp1756
g1125
F14.0
ss(I8
I21
tp1757
(dp1758
g1125
F6.0
ss(I4
I16
tp1759
(dp1760
g1125
F6.0
ss(I6
I16
tp1761
(dp1762
g1125
F15.0
ss(I5
I17
tp1763
(dp1764
g1125
F13.0
ss(I9
I13
tp1765
(dp1766
g1125
F6.0
ss(I8
I22
tp1767
(dp1768
g1125
F7.0
ss(I6
I20
tp1769
(dp1770
g1125
F6.0
ss(I3
I15
tp1771
(dp1772
g1125
F8.0
ss(I6
I17
tp1773
(dp1774
g1125
F12.0
ss(I5
I16
tp1775
(dp1776
g1125
F7.0
ss(I6
I6
tp1777
(dp1778
g1125
F6.0
ss(I6
I21
tp1779
(dp1780
g1125
F7.0
ss(I6
I24
tp1781
(dp1782
g1125
F6.0
ss(I8
I20
tp1783
(dp1784
g1125
F8.0
ss(I2
I15
tp1785
(dp1786
g1125
F8.0
sssg98
(dp1787
sg100
(dp1788
(I2
I32
tp1789
(dp1790
g1125
F6.0
ss(I2
I24
tp1791
(dp1792
g1125
F17.0
sssg102
(dp1793
sg104
(dp1794
(I8
I24
tp1795
(dp1796
g1125
F6.0
ss(I4
I19
tp1797
(dp1798
g1125
F6.0
ss(I9
I21
tp1799
(dp1800
g1125
F11.0
ssg1131
(dp1801
g1125
F18.0
ss(I4
I10
tp1802
(dp1803
g1125
F10.0
ss(I8
I21
tp1804
(dp1805
g1125
F9.0
ss(I7
I5
tp1806
(dp1807
g1125
F7.0
ss(I4
I15
tp1808
(dp1809
g1125
F6.0
ss(I7
I21
tp1810
(dp1811
g1125
F11.0
ss(I7
I24
tp1812
(dp1813
g1125
F6.0
ss(I6
I4
tp1814
(dp1815
g1125
F9.0
ss(I5
I17
tp1816
(dp1817
g1125
F14.0
ss(I7
I18
tp1818
(dp1819
g1125
F7.0
ss(I9
I13
tp1820
(dp1821
g1125
F9.0
ss(I7
I4
tp1822
(dp1823
g1125
F9.0
ss(I3
I15
tp1824
(dp1825
g1125
F6.0
ssg1421
(dp1826
g1125
F8.0
ss(I6
I2
tp1827
(dp1828
g1125
F6.0
ss(I7
I20
tp1829
(dp1830
g1125
F6.0
ss(I4
I13
tp1831
(dp1832
g1125
F6.0
ss(I2
I14
tp1833
(dp1834
g1125
F7.0
ss(I5
I16
tp1835
(dp1836
g1125
F6.0
ss(I3
I20
tp1837
(dp1838
g1125
F7.0
ss(I8
I20
tp1839
(dp1840
g1125
F11.0
ss(I4
I14
tp1841
(dp1842
g1125
F7.0
ss(I8
I17
tp1843
(dp1844
g1125
F6.0
ss(I2
I15
tp1845
(dp1846
g1125
F10.0
sssg106
(dp1847
sg108
(dp1848
sg110
(dp1849
sg112
(dp1850
sg114
(dp1851
sg116
(dp1852
sg118
(dp1853
sg120
(dp1854
sg122
(dp1855
sg124
(dp1856
(I9
I26
tp1857
(dp1858
g1125
F8.0
ss(I2
I15
tp1859
(dp1860
g1125
F6.0
ss(I11
I28
tp1861
(dp1862
g1125
F6.0
ssg1287
(dp1863
g1125
F6.0
ss(I9
I28
tp1864
(dp1865
g1125
F8.0
ss(I4
I19
tp1866
(dp1867
g1125
F16.0
ss(I9
I21
tp1868
(dp1869
g1125
F6.0
ss(I5
I18
tp1870
(dp1871
g1125
F21.0
ss(I8
I15
tp1872
(dp1873
g1125
F9.0
ss(I12
I34
tp1874
(dp1875
g1125
F6.0
ssg1705
(dp1876
g1125
F17.0
ssg1624
g1316
sg1475
(dp1877
g1125
F6.0
ss(I6
I23
tp1878
g1400
s(I11
I21
tp1879
(dp1880
g1125
F11.0
ss(I10
I23
tp1881
(dp1882
g1125
F6.0
ss(I8
I31
tp1883
(dp1884
g1125
F26.0
ss(I4
I26
tp1885
(dp1886
g1125
F7.0
ss(I9
I30
tp1887
(dp1888
g1125
F7.0
ssg1383
g1560
sg1387
g1637
s(I6
I16
tp1889
(dp1890
g1125
F7.0
ss(I8
I35
tp1891
(dp1892
g1125
F14.0
ss(I8
I28
tp1893
(dp1894
g1125
F20.0
ssg1479
(dp1895
g1125
F6.0
ss(I8
I32
tp1896
(dp1897
g1125
F22.0
ss(I10
I33
tp1898
(dp1899
g1125
F6.0
ss(I9
I20
tp1900
(dp1901
g1125
F16.0
ss(I4
I11
tp1902
(dp1903
g1125
F6.0
ss(I9
I33
tp1904
(dp1905
g1125
F8.0
ss(I8
I22
tp1906
(dp1907
g1125
F93.0
ss(I4
I17
tp1908
(dp1909
g1125
F20.0
ss(I9
I23
tp1910
(dp1911
g1125
F11.0
ss(I6
I20
tp1912
(dp1913
g1125
F7.0
ssg1489
(dp1914
g1125
F6.0
ss(I11
I20
tp1915
(dp1916
g1125
F10.0
ss(I9
I29
tp1917
(dp1918
g1125
F10.0
ss(I8
I19
tp1919
(dp1920
g1125
F19.0
ssg1168
(dp1921
g1125
F6.0
ss(I9
I18
tp1922
(dp1923
g1125
F9.0
ss(I5
I23
tp1924
(dp1925
g1125
F10.0
ss(I11
I19
tp1926
(dp1927
g1125
F6.0
ss(I1
I25
tp1928
(dp1929
g1125
F6.0
ss(I8
I29
tp1930
(dp1931
g1125
F17.0
ss(I4
I24
tp1932
(dp1933
g1125
F25.0
ss(I9
I24
tp1934
(dp1935
g1125
F6.0
ss(I8
I16
tp1936
(dp1937
g1125
F14.0
ss(I8
I33
tp1938
(dp1939
g1125
F19.0
ss(I12
I25
tp1940
(dp1941
g1125
F6.0
ss(I3
I26
tp1942
(dp1943
g1125
F11.0
ss(I8
I34
tp1944
(dp1945
g1125
F17.0
ss(I9
I27
tp1946
(dp1947
g1125
F7.0
ss(I11
I29
tp1948
(dp1949
g1125
F9.0
ss(I12
I30
tp1950
(dp1951
g1125
F21.0
ssg1106
(dp1952
g1125
F6.0
ss(I8
I23
tp1953
(dp1954
g1125
F45.0
ss(I9
I22
tp1955
(dp1956
g1125
F18.0
ss(I11
I23
tp1957
(dp1958
g1125
F12.0
ss(I6
I24
tp1959
(dp1960
g1125
F9.0
ssg1198
(dp1961
g1125
F17.0
ss(I7
I29
tp1962
(dp1963
g1125
F7.0
ss(I8
I14
tp1964
(dp1965
g1125
F6.0
ss(I11
I25
tp1966
(dp1967
g1125
F10.0
ss(I8
I20
tp1968
(dp1969
g1125
F18.0
ss(I8
I30
tp1970
(dp1971
g1125
F21.0
ss(I4
I25
tp1972
(dp1973
g1125
F11.0
ss(I9
I31
tp1974
(dp1975
g1125
F6.0
ss(I8
I17
tp1976
(dp1977
g1125
F12.0
ssg1212
(dp1978
g1125
F22.0
ss(I10
I28
tp1979
(dp1980
g1125
F7.0
ss(I9
I16
tp1981
(dp1982
g1125
F7.0
ss(I8
I27
tp1983
(dp1984
g1125
F10.0
sssg126
(dp1985
sg128
(dp1986
(I8
I24
tp1987
(dp1988
g1125
F9.0
ss(I4
I19
tp1989
(dp1990
g1125
F12.0
ss(I9
I21
tp1991
(dp1992
g1125
F9.0
ss(I5
I18
tp1993
(dp1994
g1125
F14.0
ss(I7
I19
tp1995
(dp1996
g1125
F7.0
ss(I8
I15
tp1997
(dp1998
g1125
F10.0
ss(I9
I16
tp1999
(dp2000
g1125
F10.0
ssg1878
g1404
s(I10
I23
tp2001
(dp2002
g1125
F7.0
ssg1383
g1562
s(I6
I16
tp2003
(dp2004
g1125
F6.0
ss(I8
I25
tp2005
g1901
s(I9
I13
tp2006
(dp2007
g1125
F7.0
ss(I8
I22
tp2008
(dp2009
g1125
F7.0
ss(I9
I23
tp2010
(dp2011
g1125
F9.0
ss(I6
I20
tp2012
(dp2013
g1125
F6.0
ss(I7
I17
tp2014
(dp2015
g1125
F8.0
ss(I11
I25
tp2016
(dp2017
g1125
F6.0
ss(I9
I24
tp2018
(dp2019
g1125
F6.0
ss(I8
I16
tp2020
(dp2021
g1125
F10.0
ss(I7
I14
tp2022
(dp2023
g1125
F8.0
ss(I5
I16
tp2024
(dp2025
g1125
F7.0
ss(I10
I16
tp2026
(dp2027
g1125
F9.0
ss(I9
I12
tp2028
(dp2029
g1125
F6.0
ss(I9
I1
tp2030
(dp2031
g1125
F9.0
ss(I6
I21
tp2032
(dp2033
g1125
F8.0
ss(I5
I19
tp2034
(dp2035
g1125
F11.0
ss(I8
I14
tp2036
(dp2037
g1125
F7.0
ss(I9
I17
tp2038
(dp2039
g1125
F10.0
ss(I6
I22
tp2040
(dp2041
g1125
F9.0
ss(I8
I17
tp2042
(dp2043
g1125
F14.0
ss(I6
I19
tp2044
(dp2045
g1125
F6.0
sssg130
(dp2046
sg132
(dp2047
(I9
I21
tp2048
(dp2049
g1125
F12.0
ssg30
g1239
s(I8
I15
tp2050
(dp2051
g1125
F10.0
ss(I10
I23
tp2052
(dp2053
g1125
F7.0
ss(I7
I18
tp2054
(dp2055
g1125
F6.0
ss(I6
I20
tp2056
(dp2057
g1125
F8.0
ss(I10
I15
tp2058
(dp2059
g1125
F13.0
ss(I8
I16
tp2060
(dp2061
g1125
F10.0
ss(I6
I18
tp2062
(dp2063
g1125
F10.0
ss(I12
I14
tp2064
(dp2065
g1125
F6.0
ss(I10
I16
tp2066
(dp2067
g1125
F12.0
ss(I9
I1
tp2068
(dp2069
g1125
F13.0
ss(I9
I22
tp2070
(dp2071
g1125
F8.0
ss(I10
I21
tp2072
(dp2073
g1125
F8.0
ss(I6
I3
tp2074
(dp2075
g1125
F6.0
ss(I8
I17
tp2076
(dp2077
g1125
F7.0
ss(I11
I17
tp2078
(dp2079
g1125
F6.0
sssg134
(dp2080
(I8
I24
tp2081
(dp2082
g1125
F8.0
ss(I9
I21
tp2083
(dp2084
g1125
F7.0
ss(I12
I29
tp2085
(dp2086
g1125
F13.0
ss(I9
I23
tp2087
(dp2088
g1125
F8.0
ss(I9
I24
tp2089
(dp2090
g1125
F6.0
ss(I8
I26
tp2091
(dp2092
g1125
F7.0
ssg1240
(dp2093
g1125
F13.0
ss(I8
I23
tp2094
(dp2095
g1125
F7.0
ss(I9
I22
tp2096
(dp2097
g1125
F10.0
ss(I10
I21
tp2098
(dp2099
g1125
F7.0
ss(I6
I3
tp2100
(dp2101
g1125
F6.0
ss(I10
I22
tp2102
(dp2103
g1125
F6.0
ss(I10
I28
tp2104
(dp2105
g1125
F6.0
sssg136
(dp2106
(I9
I26
tp2107
(dp2108
g1125
F16.0
ss(I11
I28
tp2109
(dp2110
g1125
F6.0
ssg1287
(dp2111
g1125
F13.0
ss(I9
I28
tp2112
(dp2113
g1125
F29.0
ss(I8
I24
tp2114
(dp2115
g1125
F6.0
ssg1128
(dp2116
g1125
F8.0
ss(I9
I21
tp2117
(dp2118
g1125
F18.0
ss(I5
I18
tp2119
(dp2120
g1125
F13.0
ss(I11
I27
tp2121
(dp2122
g1125
F8.0
ss(I10
I27
tp2123
(dp2124
g1125
F11.0
ssg1874
(dp2125
g1125
F8.0
ss(I8
I34
tp2126
(dp2127
g1125
F11.0
ssg1705
(dp2128
g1125
F9.0
ss(I10
I24
tp2129
(dp2130
g1125
F17.0
ss(I11
I21
tp2131
(dp2132
g1125
F8.0
ss(I10
I23
tp2133
(dp2134
g1125
F9.0
ss(I7
I35
tp2135
(dp2136
g1125
F6.0
ss(I9
I30
tp2137
(dp2138
g1125
F7.0
ss(I10
I29
tp2139
(dp2140
g1125
F6.0
ss(I8
I35
tp2141
(dp2142
g1125
F6.0
ss(I12
I27
tp2143
(dp2144
g1125
F11.0
ss(I10
I26
tp2145
(dp2146
g1125
F18.0
ss(I8
I28
tp2147
(dp2148
g1125
F9.0
ss(I9
I25
tp2149
(dp2150
g1125
F11.0
ss(I7
I24
tp2151
(dp2152
g1125
F6.0
ss(I5
I17
tp2153
(dp2154
g1125
F8.0
ss(I11
I26
tp2155
g2086
s(I8
I22
tp2156
(dp2157
g1125
F9.0
ss(I4
I17
tp2158
(dp2159
g1125
F8.0
ss(I9
I23
tp2160
(dp2161
g1125
F11.0
ss(I11
I20
tp2162
(dp2163
g1125
F12.0
ss(I11
I25
tp2164
(dp2165
g1125
F18.0
ss(I4
I27
tp2166
(dp2167
g1125
F6.0
ss(I4
I22
tp2168
(dp2169
g1125
F8.0
ss(I5
I23
tp2170
(dp2171
g1125
F10.0
ss(I9
I33
tp2172
(dp2173
g1125
F8.0
ss(I8
I29
tp2174
(dp2175
g1125
F8.0
ss(I4
I24
tp2176
(dp2177
g1125
F9.0
ss(I9
I24
tp2178
(dp2179
g1125
F29.0
ss(I10
I31
tp2180
(dp2181
g1125
F10.0
ss(I12
I25
tp2182
(dp2183
g1125
F9.0
ss(I8
I26
tp2184
(dp2185
g1125
F8.0
ss(I9
I27
tp2186
(dp2187
g1125
F34.0
ss(I10
I33
tp2188
(dp2189
g1125
F7.0
ss(I8
I23
tp2190
(dp2191
g1125
F8.0
ss(I9
I22
tp2192
(dp2193
g1125
F6.0
ss(I11
I23
tp2194
(dp2195
g1125
F10.0
ss(I10
I21
tp2196
(dp2197
g1125
F8.0
ss(I10
I25
tp2198
(dp2199
g1125
F9.0
ss(I11
I24
tp2200
(dp2201
g1125
F16.0
ss(I10
I34
tp2202
(dp2203
g1125
F9.0
ss(I12
I33
tp2204
(dp2205
g1125
F11.0
ss(I10
I22
tp2206
(dp2207
g1125
F8.0
ss(I4
I25
tp2208
(dp2209
g1125
F8.0
ss(I8
I17
tp2210
(dp2211
g1125
F6.0
ss(I4
I20
tp2212
(dp2213
g1125
F7.0
ss(I10
I28
tp2214
(dp2215
g1125
F6.0
ss(I8
I27
tp2216
(dp2217
g1125
F13.0
sssg138
(dp2218
(I4
I19
tp2219
(dp2220
g1125
F7.0
ss(I8
I21
tp2221
(dp2222
g1125
F7.0
ss(I8
I25
tp2223
g1903
s(I6
I4
tp2224
(dp2225
g1125
F10.0
ss(I4
I17
tp2226
(dp2227
g1125
F7.0
ss(I7
I4
tp2228
(dp2229
g1125
F6.0
ss(I4
I13
tp2230
(dp2231
g1125
F6.0
ss(I8
I14
tp2232
(dp2233
g1125
F6.0
sssg140
(dp2234
(I6
I4
tp2235
(dp2236
g1125
F12.0
ss(I9
I1
tp2237
(dp2238
g1125
F6.0
sssg142
(dp2239
(I9
I21
tp2240
(dp2241
g1125
F7.0
ss(I8
I16
tp2242
(dp2243
g1125
F6.0
sssg144
(dp2244
sg146
(dp2245
(I2
I15
tp2246
(dp2247
g1125
F10.0
ss(I11
I28
tp2248
(dp2249
g1125
F7.0
ss(I1
I17
tp2250
(dp2251
g1125
F7.0
ssg1361
g1164
s(I8
I24
tp2252
(dp2253
g1125
F17.0
ss(I4
I19
tp2254
(dp2255
g1125
F11.0
ss(I9
I21
tp2256
(dp2257
g1125
F14.0
ss(I4
I10
tp2258
(dp2259
g1125
F6.0
ss(I8
I21
tp2260
(dp2261
g1125
F20.0
ssg1624
g1320
s(I9
I16
tp2262
(dp2263
g1125
F6.0
ssg1878
g1414
s(I5
I21
tp2264
(dp2265
g1125
F7.0
ss(I10
I23
tp2266
(dp2267
g1125
F8.0
ss(I7
I22
tp2268
g1484
s(I3
I12
tp2269
(dp2270
g1125
F9.0
ss(I8
I31
tp2271
(dp2272
g1125
F6.0
ss(I4
I21
tp2273
(dp2274
g1125
F11.0
ss(I7
I21
tp2275
(dp2276
g1125
F16.0
ss(I1
I15
tp2277
g1716
s(I10
I3
tp2278
(dp2279
g1125
F6.0
ss(I9
I25
tp2280
(dp2281
g1125
F6.0
ss(I1
I16
tp2282
(dp2283
g1125
F6.0
ss(I7
I24
tp2284
(dp2285
g1125
F10.0
ss(I2
I23
tp2286
(dp2287
g1125
F10.0
ss(I8
I6
tp2288
(dp2289
g1125
F8.0
ssg2005
g1909
s(I7
I18
tp2290
(dp2291
g1125
F6.0
ss(I1
I19
tp2292
(dp2293
g1125
F6.0
ss(I12
I29
tp2294
g2159
sg1902
g2227
s(I8
I22
tp2295
(dp2296
g1125
F28.0
ss(I9
I23
tp2297
(dp2298
g1125
F10.0
ss(I6
I20
tp2299
(dp2300
g1125
F13.0
ssg1771
(dp2301
g1125
F10.0
ss(I6
I2
tp2302
(dp2303
g1125
F6.0
ss(I4
I22
tp2304
(dp2305
g1125
F11.0
ss(I5
I23
tp2306
(dp2307
g1125
F14.0
ss(I1
I20
tp2308
(dp2309
g1125
F14.0
ss(I7
I20
tp2310
(dp2311
g1125
F12.0
ss(I2
I19
tp2312
(dp2313
g1125
F7.0
ss(I1
I14
tp2314
(dp2315
g1125
F7.0
ss(I4
I13
tp2316
(dp2317
g1125
F7.0
ss(I2
I13
tp2318
(dp2319
g1125
F7.0
ss(I4
I24
tp2320
(dp2321
g1125
F20.0
ss(I9
I24
tp2322
(dp2323
g1125
F10.0
ss(I8
I16
tp2324
(dp2325
g1125
F8.0
ss(I6
I21
tp2326
(dp2327
g1125
F10.0
ss(I2
I14
tp2328
(dp2329
g1125
F7.0
ss(I1
I18
tp2330
(dp2331
g1125
F9.0
ss(I8
I23
tp2332
(dp2333
g1125
F30.0
ss(I9
I22
tp2334
(dp2335
g1125
F15.0
ss(I10
I21
tp2336
(dp2337
g1125
F18.0
ss(I6
I24
tp2338
(dp2339
g1125
F15.0
ss(I8
I20
tp2340
(dp2341
g1125
F21.0
ss(I6
I3
tp2342
(dp2343
g1125
F8.0
ss(I4
I23
tp2344
(dp2345
g1125
F8.0
ss(I6
I22
tp2346
(dp2347
g1125
F13.0
ss(I5
I22
tp2348
(dp2349
g1125
F15.0
ss(I10
I22
tp2350
(dp2351
g1125
F6.0
ss(I3
I13
tp2352
(dp2353
g1125
F12.0
ss(I1
I13
tp2354
(dp2355
g1125
F8.0
ss(I8
I17
tp2356
(dp2357
g1125
F9.0
ss(I4
I20
tp2358
(dp2359
g1125
F14.0
sssg148
(dp2360
(I1
I40
tp2361
g1355
s(I2
I28
tp2362
(dp2363
g1125
F19.0
ss(I2
I29
tp2364
(dp2365
g1125
F13.0
ss(I1
I37
tp2366
(dp2367
g1125
F8.0
sssg150
(dp2368
(I6
I7
tp2369
(dp2370
g1125
F10.0
ss(I9
I21
tp2371
(dp2372
g1125
F6.0
ss(I6
I10
tp2373
(dp2374
g1125
F7.0
ss(I8
I21
tp2375
(dp2376
g1125
F8.0
ss(I8
I9
tp2377
(dp2378
g1125
F7.0
ss(I7
I15
tp2379
g1823
s(I8
I6
tp2380
(dp2381
g1125
F10.0
ssg1902
g2229
s(I7
I17
tp2382
(dp2383
g1125
F7.0
ss(I6
I8
tp2384
(dp2385
g1125
F7.0
ss(I6
I6
tp2386
(dp2387
g1125
F21.0
ss(I7
I7
tp2388
(dp2389
g1125
F6.0
ss(I6
I12
tp2390
(dp2391
g1125
F6.0
sssg152
(dp2392
(I9
I21
tp2393
(dp2394
g1125
F15.0
ss(I5
I18
tp2395
(dp2396
g1125
F11.0
ss(I7
I19
tp2397
(dp2398
g1125
F12.0
ss(I8
I15
tp2399
(dp2400
g1125
F7.0
ss(I8
I21
tp2401
(dp2402
g1125
F12.0
ssg1624
g1324
sg1878
g1418
s(I7
I22
tp2403
g1490
s(I6
I16
tp2404
(dp2405
g1125
F6.0
ssg82
g1691
s(I2
I23
tp2406
(dp2407
g1125
F7.0
ss(I8
I25
tp2408
g1914
s(I5
I17
tp2409
(dp2410
g1125
F10.0
ss(I7
I18
tp2411
(dp2412
g1125
F11.0
ss(I1
I19
tp2413
(dp2414
g1125
F9.0
ss(I8
I22
tp2415
(dp2416
g1125
F12.0
ss(I9
I23
tp2417
(dp2418
g1125
F10.0
ss(I7
I17
tp2419
(dp2420
g1125
F6.0
ss(I8
I19
tp2421
(dp2422
g1125
F17.0
ss(I5
I23
tp2423
(dp2424
g1125
F15.0
ss(I8
I16
tp2425
(dp2426
g1125
F15.0
ss(I6
I18
tp2427
(dp2428
g1125
F7.0
ss(I5
I16
tp2429
(dp2430
g1125
F9.0
ss(I1
I18
tp2431
(dp2432
g1125
F8.0
ss(I8
I23
tp2433
(dp2434
g1125
F6.0
ss(I9
I22
tp2435
(dp2436
g1125
F7.0
ss(I10
I21
tp2437
(dp2438
g1125
F7.0
ss(I5
I22
tp2439
(dp2440
g1125
F6.0
ss(I8
I17
tp2441
(dp2442
g1125
F11.0
sssg154
(dp2443
sg156
(dp2444
sg158
(dp2445
(I8
I24
tp2446
(dp2447
g1125
F8.0
ss(I10
I23
tp2448
(dp2449
g1125
F6.0
ss(I9
I25
tp2450
(dp2451
g1125
F7.0
ss(I10
I30
tp2452
(dp2453
g1125
F6.0
ss(I9
I33
tp2454
(dp2455
g1125
F42.0
ss(I11
I23
tp2456
(dp2457
g1125
F7.0
ss(I10
I21
tp2458
(dp2459
g1125
F11.0
ss(I9
I24
tp2460
(dp2461
g1125
F8.0
ss(I10
I22
tp2462
(dp2463
g1125
F7.0
ss(I7
I23
tp2464
(dp2465
g1125
F6.0
sssg160
(dp2466
sg162
(dp2467
(I9
I26
tp2468
(dp2469
g1125
F13.0
ss(I7
I25
tp2470
g1145
s(I8
I24
tp2471
(dp2472
g1125
F7.0
ss(I10
I35
tp2473
(dp2474
g1125
F8.0
ssg1624
g1302
s(I9
I27
tp2475
(dp2476
g1125
F13.0
ss(I8
I31
tp2477
(dp2478
g1125
F7.0
ss(I8
I35
tp2479
(dp2480
g1125
F8.0
ss(I7
I21
tp2481
(dp2482
g1125
F8.0
ss(I9
I25
tp2483
(dp2484
g1125
F12.0
ss(I8
I32
tp2485
(dp2486
g1125
F9.0
ss(I7
I24
tp2487
(dp2488
g1125
F7.0
ssg2005
g1918
s(I8
I22
tp2489
(dp2490
g1125
F8.0
ss(I9
I23
tp2491
(dp2492
g1125
F16.0
ss(I5
I23
tp2493
(dp2494
g1125
F6.0
ss(I9
I33
tp2495
(dp2496
g1125
F6.0
ss(I9
I24
tp2497
(dp2498
g1125
F24.0
ss(I12
I30
tp2499
(dp2500
g1125
F12.0
ss(I10
I33
tp2501
(dp2502
g1125
F6.0
ss(I8
I23
tp2503
(dp2504
g1125
F11.0
ss(I9
I22
tp2505
(dp2506
g1125
F14.0
ss(I6
I24
tp2507
(dp2508
g1125
F8.0
ss(I8
I20
tp2509
(dp2510
g1125
F7.0
ss(I8
I33
tp2511
(dp2512
g1125
F17.0
ss(I5
I22
tp2513
(dp2514
g1125
F9.0
ss(I10
I22
tp2515
(dp2516
g1125
F6.0
ss(I9
I32
tp2517
(dp2518
g1125
F10.0
ss(I4
I25
tp2519
(dp2520
g1125
F10.0
ss(I8
I34
tp2521
(dp2522
g1125
F13.0
ss(I8
I27
tp2523
(dp2524
g1125
F9.0
sssg164
(dp2525
(I11
I28
tp2526
(dp2527
g1125
F11.0
ss(I9
I21
tp2528
(dp2529
g1125
F6.0
ss(I10
I23
tp2530
(dp2531
g1125
F11.0
ss(I9
I30
tp2532
(dp2533
g1125
F8.0
ss(I10
I29
tp2534
(dp2535
g1125
F13.0
ss(I10
I30
tp2536
(dp2537
g1125
F9.0
ss(I12
I29
tp2538
g2146
s(I9
I23
tp2539
(dp2540
g1125
F8.0
ss(I11
I30
tp2541
(dp2542
g1125
F8.0
ss(I11
I29
tp2543
(dp2544
g1125
F14.0
ss(I12
I30
tp2545
(dp2546
g1125
F7.0
ss(I10
I21
tp2547
(dp2548
g1125
F12.0
ss(I10
I22
tp2549
(dp2550
g1125
F14.0
ss(I10
I28
tp2551
(dp2552
g1125
F6.0
ss(I10
I31
tp2553
(dp2554
g1125
F12.0
sssg166
(dp2555
(I9
I21
tp2556
(dp2557
g1125
F29.0
ss(I5
I18
tp2558
(dp2559
g1125
F12.0
ss(I10
I23
tp2560
(dp2561
g1125
F10.0
ssg1383
g1578
sg1387
g1647
s(I8
I25
tp2562
g1927
s(I5
I17
tp2563
(dp2564
g1125
F8.0
ss(I9
I13
tp2565
(dp2566
g1125
F7.0
ss(I10
I25
tp2567
(dp2568
g1125
F8.0
ss(I10
I15
tp2569
(dp2570
g1125
F6.0
ss(I8
I19
tp2571
(dp2572
g1125
F7.0
ss(I9
I24
tp2573
(dp2574
g1125
F6.0
ss(I6
I18
tp2575
(dp2576
g1125
F10.0
ss(I10
I16
tp2577
(dp2578
g1125
F7.0
ss(I8
I23
tp2579
(dp2580
g1125
F8.0
ss(I9
I22
tp2581
(dp2582
g1125
F6.0
ss(I8
I17
tp2583
(dp2584
g1125
F7.0
sssg168
(dp2585
sg170
(dp2586
sg172
(dp2587
(I7
I25
tp2588
g1161
s(I2
I27
tp2589
g1262
s(I2
I28
tp2590
(dp2591
g1125
F8.0
ssg2005
g1929
s(I6
I24
tp2592
(dp2593
g1125
F8.0
ssg1507
(dp2594
g1125
F6.0
sssg174
(dp2595
(I1
I38
tp2596
(dp2597
g1125
F9.0
ss(I2
I34
tp2598
(dp2599
g1125
F7.0
ssg1135
g1264
s(I2
I26
tp2600
(dp2601
g1125
F9.0
sssg176
(dp2602
g1135
g1266
s(I3
I34
tp2603
(dp2604
g1125
F9.0
ss(I7
I24
tp2605
(dp2606
g1125
F10.0
sssg178
(dp2607
(I9
I27
tp2608
(dp2609
g1125
F13.0
ssg1361
g1172
s(I2
I22
tp2610
(dp2611
g1125
F7.0
ss(I8
I24
tp2612
(dp2613
g1125
F20.0
ss(I4
I19
tp2614
(dp2615
g1125
F11.0
ss(I5
I18
tp2616
(dp2617
g1125
F9.0
ssg1135
g1268
s(I8
I21
tp2618
(dp2619
g1125
F16.0
ssg1624
g1326
sg1878
g1428
s(I10
I23
tp2620
(dp2621
g1125
F8.0
ss(I10
I25
tp2622
(dp2623
g1125
F6.0
ss(I4
I21
tp2624
(dp2625
g1125
F15.0
ssg1391
g1681
s(I7
I21
tp2626
(dp2627
g1125
F6.0
ss(I9
I25
tp2628
(dp2629
g1125
F9.0
ss(I10
I30
tp2630
(dp2631
g1125
F8.0
ss(I8
I32
tp2632
(dp2633
g1125
F8.0
ss(I7
I24
tp2634
(dp2635
g1125
F12.0
ss(I2
I23
tp2636
(dp2637
g1125
F10.0
ss(I8
I25
tp2638
g1933
s(I4
I28
tp2639
(dp2640
g1125
F6.0
ssg2538
g2177
s(I8
I22
tp2641
(dp2642
g1125
F32.0
ssg2158
g2321
s(I9
I23
tp2643
(dp2644
g1125
F15.0
ss(I6
I20
tp2645
(dp2646
g1125
F6.0
ss(I11
I25
tp2647
(dp2648
g1125
F7.0
ss(I2
I15
tp2649
(dp2650
g1125
F7.0
ss(I8
I19
tp2651
(dp2652
g1125
F8.0
ssg1168
(dp2653
g1125
F12.0
ss(I8
I36
tp2654
(dp2655
g1125
F8.0
ss(I8
I29
tp2656
(dp2657
g1125
F15.0
ss(I9
I24
tp2658
(dp2659
g1125
F13.0
ss(I1
I23
tp2660
(dp2661
g1125
F12.0
ss(I3
I26
tp2662
(dp2663
g1125
F8.0
ss(I8
I26
tp2664
(dp2665
g1125
F8.0
ss(I8
I34
tp2666
(dp2667
g1125
F6.0
ss(I10
I33
tp2668
(dp2669
g1125
F6.0
ss(I8
I23
tp2670
(dp2671
g1125
F15.0
ss(I5
I19
tp2672
(dp2673
g1125
F6.0
ss(I6
I24
tp2674
(dp2675
g1125
F10.0
ss(I11
I24
tp2676
(dp2677
g1125
F6.0
ss(I8
I20
tp2678
(dp2679
g1125
F6.0
ssg1473
(dp2680
g1125
F8.0
ss(I5
I22
tp2681
(dp2682
g1125
F8.0
ss(I7
I23
tp2683
(dp2684
g1125
F9.0
ss(I9
I22
tp2685
(dp2686
g1125
F9.0
ss(I9
I31
tp2687
(dp2688
g1125
F6.0
ss(I4
I20
tp2689
(dp2690
g1125
F8.0
ss(I6
I19
tp2691
(dp2692
g1125
F7.0
ss(I1
I22
tp2693
(dp2694
g1125
F6.0
ss(I2
I21
tp2695
(dp2696
g1125
F6.0
sssg180
(dp2697
sg182
(dp2698
sg184
(dp2699
(I1
I17
tp2700
(dp2701
g1125
F8.0
ssg1361
g1174
s(I9
I21
tp2702
(dp2703
g1125
F11.0
ss(I8
I21
tp2704
(dp2705
g1125
F15.0
ss(I6
I23
tp2706
g1434
sg1383
g1582
s(I6
I13
tp2707
(dp2708
g1125
F7.0
ss(I7
I21
tp2709
(dp2710
g1125
F16.0
ss(I10
I19
tp2711
g2063
s(I8
I22
tp2712
(dp2713
g1125
F17.0
ss(I9
I23
tp2714
(dp2715
g1125
F12.0
ssg1489
g2428
s(I11
I20
tp2716
(dp2717
g1125
F8.0
ss(I10
I20
tp2718
(dp2719
g1125
F6.0
ssg1926
g2576
s(I7
I20
tp2720
(dp2721
g1125
F11.0
ss(I8
I23
tp2722
(dp2723
g1125
F8.0
ss(I9
I22
tp2724
(dp2725
g1125
F9.0
ss(I6
I21
tp2726
(dp2727
g1125
F23.0
ss(I10
I21
tp2728
(dp2729
g1125
F6.0
ss(I6
I24
tp2730
(dp2731
g1125
F11.0
ss(I8
I20
tp2732
(dp2733
g1125
F11.0
ss(I6
I22
tp2734
(dp2735
g1125
F9.0
ss(I8
I17
tp2736
(dp2737
g1125
F6.0
sssg186
(dp2738
sg188
(dp2739
g1361
g1176
s(I9
I28
tp2740
(dp2741
g1125
F6.0
ss(I8
I24
tp2742
(dp2743
g1125
F19.0
ss(I7
I35
tp2744
(dp2745
g1125
F6.0
ssg1144
g2512
s(I8
I31
tp2746
(dp2747
g1125
F15.0
ss(I9
I30
tp2748
(dp2749
g1125
F12.0
ss(I8
I35
tp2750
(dp2751
g1125
F18.0
ss(I12
I27
tp2752
(dp2753
g1125
F6.0
ss(I8
I28
tp2754
(dp2755
g1125
F12.0
ss(I9
I25
tp2756
(dp2757
g1125
F11.0
ss(I10
I30
tp2758
(dp2759
g1125
F17.0
ss(I7
I24
tp2760
(dp2761
g1125
F11.0
ssg2005
g1939
s(I4
I28
tp2762
(dp2763
g1125
F6.0
ss(I8
I22
tp2764
(dp2765
g1125
F9.0
ss(I10
I35
tp2766
(dp2767
g1125
F7.0
ss(I5
I23
tp2768
(dp2769
g1125
F6.0
ss(I4
I33
tp2770
(dp2771
g1125
F6.0
ss(I8
I36
tp2772
(dp2773
g1125
F9.0
ss(I9
I33
tp2774
(dp2775
g1125
F8.0
ss(I8
I29
tp2776
(dp2777
g1125
F33.0
ss(I9
I24
tp2778
(dp2779
g1125
F18.0
ss(I10
I31
tp2780
(dp2781
g1125
F7.0
ss(I11
I30
tp2782
(dp2783
g1125
F7.0
ss(I11
I33
tp2784
(dp2785
g1125
F6.0
ss(I8
I26
tp2786
(dp2787
g1125
F20.0
ss(I8
I43
tp2788
(dp2789
g1125
F6.0
ss(I11
I29
tp2790
(dp2791
g1125
F12.0
ss(I12
I30
tp2792
(dp2793
g1125
F14.0
ss(I8
I23
tp2794
(dp2795
g1125
F17.0
ss(I9
I22
tp2796
(dp2797
g1125
F6.0
ss(I6
I24
tp2798
(dp2799
g1125
F10.0
ss(I8
I33
tp2800
(dp2801
g1125
F9.0
ss(I10
I27
tp2802
(dp2803
g1125
F8.0
ss(I4
I34
tp2804
(dp2805
g1125
F9.0
ss(I8
I30
tp2806
(dp2807
g1125
F30.0
ss(I4
I25
tp2808
(dp2809
g1125
F7.0
ss(I9
I31
tp2810
(dp2811
g1125
F8.0
ss(I8
I17
tp2812
(dp2813
g1125
F6.0
ss(I10
I28
tp2814
(dp2815
g1125
F8.0
ss(I8
I34
tp2816
(dp2817
g1125
F17.0
ss(I8
I27
tp2818
(dp2819
g1125
F9.0
sssg190
(dp2820
sg192
(dp2821
sg194
(dp2822
sg196
(dp2823
(I5
I18
tp2824
(dp2825
g1125
F11.0
ssg1705
(dp2826
g1125
F6.0
sssg198
(dp2827
sg200
(dp2828
sg202
(dp2829
sg204
(dp2830
sg206
(dp2831
g1126
(dp2832
g1125
F6.0
ss(I4
I19
tp2833
(dp2834
g1125
F7.0
ss(I9
I21
tp2835
(dp2836
g1125
F13.0
ssg1131
(dp2837
g1125
F8.0
ss(I8
I21
tp2838
(dp2839
g1125
F15.0
ssg1624
g1332
sg1878
g1438
s(I5
I21
tp2840
(dp2841
g1125
F28.0
ss(I4
I21
tp2842
(dp2843
g1125
F17.0
ss(I6
I16
tp2844
(dp2845
g1125
F7.0
ssg1816
(dp2846
g1125
F11.0
ssg2158
g2331
sg1487
(dp2847
g1125
F20.0
ssg1489
g2432
sg1168
(dp2848
g1125
F14.0
ss(I5
I23
tp2849
(dp2850
g1125
F18.0
ssg1959
(dp2851
g1125
F7.0
ss(I4
I18
tp2852
(dp2853
g1125
F6.0
ss(I6
I21
tp2854
(dp2855
g1125
F13.0
ss(I10
I21
tp2856
(dp2857
g1125
F8.0
ssg1338
(dp2858
g1125
F20.0
ssg1730
(dp2859
g1125
F7.0
ssg1212
(dp2860
g1125
F22.0
sssg208
(dp2861
sg210
(dp2862
sg212
(dp2863
(I5
I3
tp2864
(dp2865
g1125
F7.0
ss(I2
I15
tp2866
(dp2867
g1125
F9.0
sssg214
(dp2868
sg216
(dp2869
sg218
(dp2870
g1361
g1196
s(I4
I19
tp2871
(dp2872
g1125
F7.0
ss(I9
I21
tp2873
(dp2874
g1125
F10.0
ss(I5
I18
tp2875
(dp2876
g1125
F35.0
ss(I8
I15
tp2877
(dp2878
g1125
F10.0
ss(I8
I21
tp2879
(dp2880
g1125
F9.0
ss(I10
I24
tp2881
(dp2882
g1125
F6.0
ssg1878
g1444
s(I10
I23
tp2883
(dp2884
g1125
F8.0
ssg1383
g1592
s(I6
I16
tp2885
(dp2886
g1125
F12.0
ss(I9
I25
tp2887
(dp2888
g1125
F6.0
ss(I6
I14
tp2889
g1780
s(I7
I24
tp2890
(dp2891
g1125
F7.0
ss(I9
I20
tp2892
g2033
s(I5
I17
tp2893
(dp2894
g1125
F9.0
ss(I8
I22
tp2895
(dp2896
g1125
F9.0
ssg2158
g2327
s(I9
I23
tp2897
(dp2898
g1125
F10.0
ss(I8
I19
tp2899
(dp2900
g1125
F14.0
ss(I6
I17
tp2901
(dp2902
g1125
F13.0
ss(I9
I24
tp2903
(dp2904
g1125
F6.0
ss(I8
I16
tp2905
(dp2906
g1125
F6.0
ss(I6
I15
tp2907
(dp2908
g1125
F6.0
ssg1433
g2727
s(I8
I26
tp2909
(dp2910
g1125
F6.0
ssg1183
(dp2911
g1125
F7.0
ss(I1
I18
tp2912
g2855
s(I8
I23
tp2913
(dp2914
g1125
F8.0
ss(I5
I19
tp2915
(dp2916
g1125
F8.0
ss(I6
I24
tp2917
(dp2918
g1125
F12.0
ss(I8
I20
tp2919
(dp2920
g1125
F6.0
ss(I7
I23
tp2921
(dp2922
g1125
F8.0
ss(I5
I15
tp2923
(dp2924
g1125
F6.0
ss(I8
I17
tp2925
(dp2926
g1125
F7.0
ssg1212
(dp2927
g1125
F9.0
sssg220
(dp2928
sg222
(dp2929
sg224
(dp2930
sg226
(dp2931
(I9
I21
tp2932
(dp2933
g1125
F13.0
ssg1131
(dp2934
g1125
F22.0
ss(I8
I21
tp2935
(dp2936
g1125
F9.0
ssg1810
(dp2937
g1125
F17.0
ssg1816
(dp2938
g1125
F17.0
ssg1487
(dp2939
g1125
F6.0
ss(I10
I20
tp2940
(dp2941
g1125
F7.0
ssg1829
(dp2942
g1125
F10.0
ss(I6
I24
tp2943
(dp2944
g1125
F6.0
ss(I1
I14
tp2945
(dp2946
g1125
F6.0
ss(I4
I13
tp2947
(dp2948
g1125
F8.0
ss(I5
I19
tp2949
(dp2950
g1125
F6.0
ss(I8
I20
tp2951
(dp2952
g1125
F6.0
ss(I10
I22
tp2953
(dp2954
g1125
F7.0
ss(I7
I23
tp2955
(dp2956
g1125
F8.0
ss(I2
I15
tp2957
(dp2958
g1125
F14.0
sssg228
(dp2959
sg230
(dp2960
sg232
(dp2961
sg234
(dp2962
sg236
(dp2963
(I10
I23
tp2964
(dp2965
g1125
F6.0
ss(I8
I31
tp2966
(dp2967
g1125
F7.0
ss(I8
I35
tp2968
(dp2969
g1125
F6.0
ss(I4
I31
tp2970
(dp2971
g1125
F6.0
ss(I10
I3
tp2972
(dp2973
g1125
F6.0
ss(I10
I30
tp2974
(dp2975
g1125
F9.0
ss(I9
I30
tp2976
(dp2977
g1125
F10.0
ssg2538
g2203
s(I8
I36
tp2978
(dp2979
g1125
F7.0
ss(I9
I33
tp2980
(dp2981
g1125
F20.0
ss(I8
I26
tp2982
(dp2983
g1125
F6.0
ss(I10
I21
tp2984
(dp2985
g1125
F10.0
ss(I11
I29
tp2986
(dp2987
g1125
F7.0
ss(I10
I33
tp2988
(dp2989
g1125
F8.0
ss(I7
I23
tp2990
(dp2991
g1125
F6.0
sssg238
(dp2992
(I6
I10
tp2993
(dp2994
g1125
F9.0
ssg1131
(dp2995
g1125
F8.0
ss(I5
I14
tp2996
(dp2997
g1125
F8.0
ss(I11
I15
tp2998
g1609
s(I8
I25
tp2999
g1965
sg2892
g2037
s(I6
I11
tp3000
(dp3001
g1125
F9.0
ss(I5
I17
tp3002
(dp3003
g1125
F7.0
ssg1902
g2233
s(I8
I22
tp3004
(dp3005
g1125
F9.0
ss(I8
I19
tp3006
(dp3007
g1125
F9.0
ss(I8
I20
tp3008
(dp3009
g1125
F7.0
ss(I9
I10
tp3010
(dp3011
g1125
F6.0
sssg240
(dp3012
sg242
(dp3013
sg244
(dp3014
(I8
I24
tp3015
(dp3016
g1125
F8.0
ss(I9
I21
tp3017
(dp3018
g1125
F7.0
ss(I6
I4
tp3019
(dp3020
g1125
F6.0
ss(I8
I22
tp3021
(dp3022
g1125
F6.0
ss(I8
I23
tp3023
(dp3024
g1125
F7.0
ss(I8
I20
tp3025
(dp3026
g1125
F10.0
sssg246
(dp3027
sg248
(dp3028
(I7
I12
tp3029
(dp3030
g1125
F7.0
ss(I11
I28
tp3031
(dp3032
g1125
F7.0
ss(I8
I24
tp3033
(dp3034
g1125
F25.0
ss(I4
I19
tp3035
(dp3036
g1125
F12.0
ss(I5
I18
tp3037
(dp3038
g1125
F52.0
ss(I10
I18
tp3039
(dp3040
g1125
F8.0
ss(I8
I15
tp3041
(dp3042
g1125
F31.0
ss(I9
I14
tp3043
(dp3044
g1125
F6.0
ss(I4
I16
tp3045
(dp3046
g1125
F7.0
ss(I10
I24
tp3047
(dp3048
g1125
F7.0
ssg1981
(dp3049
g1125
F10.0
ssg1878
g1450
sg2268
g1506
s(I5
I14
tp3050
(dp3051
g1125
F8.0
ssg1383
g1598
s(I10
I16
tp3052
(dp3053
g1125
F6.0
ssg1387
g1663
s(I6
I16
tp3054
(dp3055
g1125
F18.0
ss(I7
I21
tp3056
(dp3057
g1125
F6.0
ss(I4
I12
tp3058
g1740
sg2889
g1784
sg2379
g1840
s(I1
I16
tp3059
(dp3060
g1125
F6.0
ssg2005
g1969
s(I5
I17
tp3061
(dp3062
g1125
F14.0
ss(I7
I18
tp3063
(dp3064
g1125
F8.0
ss(I4
I14
tp3065
(dp3066
g1125
F6.0
ss(I9
I13
tp3067
(dp3068
g1125
F13.0
ss(I8
I22
tp3069
(dp3070
g1125
F8.0
ssg2158
g2341
s(I9
I23
tp3071
(dp3072
g1125
F12.0
ss(I6
I20
tp3073
(dp3074
g1125
F6.0
ss(I7
I17
tp3075
(dp3076
g1125
F7.0
ssg1771
(dp3077
g1125
F6.0
ss(I10
I15
tp3078
(dp3079
g1125
F15.0
ssg1144
g2510
s(I8
I19
tp3080
(dp3081
g1125
F10.0
ss(I9
I18
tp3082
(dp3083
g1125
F14.0
ssg1423
(dp3084
g1125
F9.0
ss(I8
I29
tp3085
(dp3086
g1125
F9.0
ssg1932
g2679
s(I9
I24
tp3087
(dp3088
g1125
F10.0
ss(I8
I16
tp3089
(dp3090
g1125
F38.0
ss(I6
I15
tp3091
(dp3092
g1125
F7.0
ssg1433
g2733
s(I8
I26
tp3093
(dp3094
g1125
F13.0
ssg1183
(dp3095
g1125
F6.0
ss(I9
I12
tp3096
(dp3097
g1125
F8.0
ss(I8
I23
tp3098
(dp3099
g1125
F19.0
ss(I7
I7
tp3100
(dp3101
g1125
F7.0
ssg2854
g2920
s(I5
I19
tp3102
(dp3103
g1125
F15.0
ss(I7
I16
tp3104
g2952
s(I3
I14
tp3105
(dp3106
g1125
F7.0
ssg1964
g3009
s(I9
I15
tp3107
g3026
s(I9
I17
tp3108
(dp3109
g1125
F13.0
ss(I6
I22
tp3110
(dp3111
g1125
F6.0
ss(I11
I18
tp3112
(dp3113
g1125
F7.0
ss(I7
I23
tp3114
(dp3115
g1125
F8.0
ss(I8
I30
tp3116
(dp3117
g1125
F11.0
ss(I8
I17
tp3118
(dp3119
g1125
F46.0
ss(I6
I12
tp3120
(dp3121
g1125
F8.0
ssg1212
(dp3122
g1125
F6.0
sssg250
(dp3123
(I8
I24
tp3124
(dp3125
g1125
F19.0
ss(I9
I21
tp3126
(dp3127
g1125
F28.0
ss(I9
I25
tp3128
(dp3129
g1125
F7.0
ssg2892
g2039
s(I5
I17
tp3130
(dp3131
g1125
F10.0
ss(I9
I24
tp3132
(dp3133
g1125
F6.0
ss(I6
I8
tp3134
(dp3135
g1125
F6.0
ss(I8
I23
tp3136
(dp3137
g1125
F8.0
ss(I9
I22
tp3138
(dp3139
g1125
F9.0
ss(I10
I21
tp3140
(dp3141
g1125
F6.0
ssg1597
g3109
ssg252
(dp3142
sg254
(dp3143
(I10
I17
tp3144
(dp3145
g1125
F6.0
ss(I11
I28
tp3146
(dp3147
g1125
F8.0
ss(I12
I31
tp3148
(dp3149
g1125
F7.0
ss(I8
I24
tp3150
(dp3151
g1125
F8.0
ss(I9
I21
tp3152
(dp3153
g1125
F6.0
ss(I5
I18
tp3154
(dp3155
g1125
F13.0
ss(I11
I27
tp3156
(dp3157
g1125
F8.0
ss(I9
I3
tp3158
(dp3159
g1125
F6.0
ss(I10
I24
tp3160
(dp3161
g1125
F14.0
ssg1878
g1382
sg1383
g1602
s(I10
I29
tp3162
(dp3163
g1125
F11.0
ssg1387
g1665
s(I7
I21
tp3164
(dp3165
g1125
F7.0
ss(I9
I25
tp3166
(dp3167
g1125
F8.0
ssg1479
(dp3168
g1125
F9.0
ss(I7
I24
tp3169
(dp3170
g1125
F6.0
ssg2155
g2103
sg2538
g2207
s(I10
I32
tp3171
(dp3172
g1125
F8.0
ss(I8
I22
tp3173
(dp3174
g1125
F6.0
ssg2158
g2351
s(I10
I25
tp3175
(dp3176
g1125
F34.0
ss(I11
I20
tp3177
(dp3178
g1125
F9.0
ss(I11
I25
tp3179
(dp3180
g1125
F17.0
ss(I12
I32
tp3181
g2463
sg1144
g2516
s(I10
I26
tp3182
g2550
s(I9
I18
tp3183
(dp3184
g1125
F6.0
ss(I6
I17
tp3185
(dp3186
g1125
F6.0
ss(I11
I34
tp3187
(dp3188
g1125
F6.0
ss(I12
I35
tp3189
(dp3190
g1125
F7.0
ss(I9
I24
tp3191
(dp3192
g1125
F9.0
ss(I7
I14
tp3193
(dp3194
g1125
F7.0
ss(I8
I26
tp3195
(dp3196
g1125
F6.0
ssg1166
(dp3197
g1125
F7.0
ss(I12
I30
tp3198
(dp3199
g1125
F13.0
ss(I9
I1
tp3200
(dp3201
g1125
F13.0
ssg3104
g2954
s(I11
I24
tp3202
(dp3203
g1125
F6.0
ss(I6
I3
tp3204
(dp3205
g1125
F6.0
ssg1473
(dp3206
g1125
F10.0
ss(I12
I33
tp3207
(dp3208
g1125
F6.0
ss(I4
I20
tp3209
(dp3210
g1125
F9.0
ss(I10
I28
tp3211
(dp3212
g1125
F8.0
ss(I11
I32
tp3213
(dp3214
g1125
F8.0
sssg256
(dp3215
sg258
(dp3216
(I6
I15
tp3217
(dp3218
g1125
F6.0
ss(I5
I19
tp3219
(dp3220
g1125
F6.0
ss(I8
I17
tp3221
(dp3222
g1125
F6.0
sssg260
(dp3223
(I3
I24
tp3224
(dp3225
g1125
F6.0
ssg2835
(dp3226
g1125
F7.0
ss(I8
I21
tp3227
(dp3228
g1125
F10.0
ssg1981
(dp3229
g1125
F7.0
ssg2158
g2353
sg1419
(dp3230
g1125
F6.0
sssg262
(dp3231
g1816
(dp3232
g1125
F7.0
ssg2158
g2355
ssg264
(dp3233
(I1
I15
tp3234
g1729
sg2379
g1842
s(I8
I19
tp3235
(dp3236
g1125
F6.0
ssg1597
g3066
ssg266
(dp3237
sg268
(dp3238
(I8
I21
tp3239
(dp3240
g1125
F10.0
ssg1383
g1604
s(I1
I14
tp3241
(dp3242
g1125
F7.0
ss(I4
I13
tp3243
(dp3244
g1125
F7.0
ss(I10
I16
tp3245
(dp3246
g1125
F12.0
ss(I6
I6
tp3247
(dp3248
g1125
F7.0
ss(I6
I21
tp3249
g2924
ssg270
(dp3250
(I1
I15
tp3251
g1731
s(I2
I23
tp3252
(dp3253
g1125
F8.0
ss(I1
I18
tp3254
g2859
s(I3
I19
tp3255
(dp3256
g1125
F6.0
ss(I2
I15
tp3257
(dp3258
g1125
F8.0
sssg272
(dp3259
g1356
(dp3260
g1125
F11.0
sssg274
(dp3261
(I6
I9
tp3262
(dp3263
g1125
F7.0
ss(I5
I8
tp3264
(dp3265
g1125
F6.0
ss(I8
I15
tp3266
(dp3267
g1125
F9.0
ss(I4
I10
tp3268
(dp3269
g1125
F7.0
ss(I6
I16
tp3270
(dp3271
g1125
F10.0
ssg2277
g1733
s(I7
I4
tp3272
g2391
s(I6
I20
tp3273
(dp3274
g1125
F6.0
ss(I8
I10
tp3275
(dp3276
g1125
F6.0
ss(I9
I11
tp3277
(dp3278
g1125
F7.0
ss(I6
I15
tp3279
(dp3280
g1125
F9.0
ss(I8
I20
tp3281
g3121
s(I8
I17
tp3282
(dp3283
g1125
F6.0
sssg276
(dp3284
(I11
I28
tp3285
(dp3286
g1125
F7.0
ss(I7
I25
tp3287
g1213
s(I8
I24
tp3288
(dp3289
g1125
F12.0
ss(I9
I21
tp3290
(dp3291
g1125
F10.0
ss(I5
I18
tp3292
(dp3293
g1125
F10.0
ss(I7
I19
tp3294
(dp3295
g1125
F6.0
ss(I8
I15
tp3296
(dp3297
g1125
F6.0
ss(I3
I23
tp3298
(dp3299
g1125
F10.0
ss(I8
I21
tp3300
(dp3301
g1125
F20.0
ssg1624
g1346
sg1878
g1458
sg2268
g1512
s(I7
I21
tp3302
(dp3303
g1125
F8.0
ss(I9
I25
tp3304
(dp3305
g1125
F9.0
ssg1812
(dp3306
g1125
F12.0
ss(I8
I25
tp3307
g1978
sg2538
g2213
s(I8
I22
tp3308
(dp3309
g1125
F40.0
ssg2158
g2359
s(I9
I23
tp3310
(dp3311
g1125
F11.0
ss(I6
I20
tp3312
(dp3313
g1125
F6.0
ss(I10
I25
tp3314
(dp3315
g1125
F6.0
ss(I5
I23
tp3316
(dp3317
g1125
F16.0
ss(I1
I20
tp3318
(dp3319
g1125
F6.0
ss(I7
I20
tp3320
(dp3321
g1125
F8.0
ssg1932
g2690
sg1936
(dp3322
g1125
F9.0
ss(I1
I18
tp3323
g2860
s(I8
I23
tp3324
(dp3325
g1125
F26.0
ss(I9
I22
tp3326
(dp3327
g1125
F6.0
ss(I6
I21
tp3328
g2927
s(I6
I24
tp3329
(dp3330
g1125
F13.0
ss(I8
I20
tp3331
g3122
s(I6
I3
tp3332
(dp3333
g1125
F6.0
ss(I4
I23
tp3334
(dp3335
g1125
F16.0
ss(I6
I22
tp3336
(dp3337
g1125
F25.0
ss(I5
I22
tp3338
(dp3339
g1125
F25.0
ss(I10
I22
tp3340
g3210
s(I7
I23
tp3341
(dp3342
g1125
F19.0
ss(I8
I17
tp3343
(dp3344
g1125
F8.0
sssg278
(dp3345
sg280
(dp3346
sg282
(dp3347
sg284
(dp3348
sg286
(dp3349
sg288
(dp3350
sg290
(dp3351
sg292
(dp3352
(I9
I25
tp3353
(dp3354
g1125
F6.0
ss(I9
I33
tp3355
(dp3356
g1125
F25.0
ss(I8
I10
tp3357
(dp3358
g1125
F6.0
ss(I9
I24
tp3359
(dp3360
g1125
F6.0
ss(I11
I29
tp3361
(dp3362
g1125
F6.0
ss(I6
I24
tp3363
(dp3364
g1125
F6.0
ss(I10
I22
tp3365
g3214
ssg294
(dp3366
sg296
(dp3367
(I9
I26
tp3368
(dp3369
g1125
F6.0
ss(I12
I31
tp3370
(dp3371
g1125
F7.0
ss(I8
I24
tp3372
(dp3373
g1125
F16.0
ss(I5
I18
tp3374
(dp3375
g1125
F8.0
ssg1144
g2524
s(I8
I31
tp3376
(dp3377
g1125
F12.0
ss(I8
I35
tp3378
(dp3379
g1125
F12.0
ss(I9
I32
tp3380
(dp3381
g1125
F7.0
ss(I11
I31
tp3382
(dp3383
g1125
F6.0
ss(I8
I32
tp3384
(dp3385
g1125
F17.0
ssg2005
g1984
sg2538
g2217
s(I8
I22
tp3386
(dp3387
g1125
F12.0
ss(I9
I23
tp3388
(dp3389
g1125
F12.0
ss(I8
I29
tp3390
(dp3391
g1125
F12.0
ss(I9
I24
tp3392
(dp3393
g1125
F11.0
ss(I10
I31
tp3394
(dp3395
g1125
F6.0
ss(I8
I33
tp3396
g2819
s(I3
I26
tp3397
(dp3398
g1125
F6.0
ss(I12
I30
tp3399
(dp3400
g1125
F7.0
ss(I10
I33
tp3401
(dp3402
g1125
F7.0
ss(I13
I33
tp3403
(dp3404
g1125
F7.0
ss(I8
I23
tp3405
(dp3406
g1125
F17.0
ss(I6
I24
tp3407
(dp3408
g1125
F10.0
ss(I7
I23
tp3409
(dp3410
g1125
F8.0
ss(I8
I30
tp3411
(dp3412
g1125
F20.0
ss(I4
I25
tp3413
(dp3414
g1125
F6.0
ss(I8
I34
tp3415
(dp3416
g1125
F14.0
sssg298
(dp3417
sg300
(dp3418
sg302
(dp3419
(I11
I28
tp3420
(dp3421
g1125
F9.0
ssg1361
g1124
s(I9
I21
tp3422
(dp3423
g1125
F8.0
ssg1144
g2469
s(I9
I30
tp3424
(dp3425
g1125
F6.0
ss(I10
I29
tp3426
(dp3427
g1125
F9.0
ss(I9
I25
tp3428
(dp3429
g1125
F7.0
ss(I10
I30
tp3430
(dp3431
g1125
F7.0
ss(I11
I31
tp3432
(dp3433
g1125
F6.0
ssg2005
g1858
sg2538
g2108
s(I8
I22
tp3434
(dp3435
g1125
F7.0
ss(I9
I23
tp3436
(dp3437
g1125
F9.0
ss(I11
I20
tp3438
(dp3439
g1125
F6.0
ss(I11
I25
tp3440
(dp3441
g1125
F10.0
ss(I8
I27
tp3442
g3369
s(I8
I29
tp3443
(dp3444
g1125
F6.0
ss(I10
I31
tp3445
(dp3446
g1125
F7.0
ss(I11
I30
tp3447
(dp3448
g1125
F11.0
ss(I11
I29
tp3449
(dp3450
g1125
F18.0
ss(I12
I30
tp3451
(dp3452
g1125
F16.0
ss(I10
I33
tp3453
(dp3454
g1125
F7.0
ss(I10
I32
tp3455
(dp3456
g1125
F7.0
ss(I9
I22
tp3457
(dp3458
g1125
F6.0
ss(I9
I31
tp3459
(dp3460
g1125
F6.0
ss(I10
I28
tp3461
(dp3462
g1125
F9.0
sssg304
(dp3463
(I8
I24
tp3464
(dp3465
g1125
F6.0
ss(I9
I21
tp3466
(dp3467
g1125
F9.0
ss(I9
I14
tp3468
(dp3469
g1125
F8.0
ss(I10
I23
tp3470
(dp3471
g1125
F8.0
ssg1387
g1613
s(I5
I17
tp3472
(dp3473
g1125
F8.0
ss(I9
I23
tp3474
(dp3475
g1125
F7.0
ss(I6
I20
tp3476
(dp3477
g1125
F6.0
ss(I8
I19
tp3478
(dp3479
g1125
F6.0
ss(I9
I24
tp3480
(dp3481
g1125
F6.0
ss(I9
I22
tp3482
(dp3483
g1125
F7.0
ss(I10
I21
tp3484
(dp3485
g1125
F6.0
ssg3340
g3145
ssg306
(dp3486
sg308
(dp3487
(I9
I26
tp3488
g3421
s(I9
I27
tp3489
(dp3490
g1125
F13.0
ss(I12
I31
tp3491
(dp3492
g1125
F7.0
ss(I8
I24
tp3493
(dp3494
g1125
F7.0
ss(I9
I21
tp3495
(dp3496
g1125
F13.0
ss(I5
I18
tp3497
(dp3498
g1125
F19.0
ss(I10
I24
tp3499
(dp3500
g1125
F11.0
ss(I10
I23
tp3501
(dp3502
g1125
F8.0
ssg3340
g3147
s(I9
I25
tp3503
(dp3504
g1125
F6.0
ss(I8
I32
tp3505
(dp3506
g1125
F8.0
ssg2005
g1862
sg2538
g2110
s(I8
I22
tp3507
(dp3508
g1125
F11.0
ssg2158
g2249
s(I9
I23
tp3509
(dp3510
g1125
F8.0
ssg3182
g2527
s(I9
I33
tp3511
(dp3512
g1125
F6.0
ss(I9
I24
tp3513
(dp3514
g1125
F13.0
ss(I12
I30
tp3515
(dp3516
g1125
F7.0
ss(I8
I23
tp3517
(dp3518
g1125
F6.0
ss(I9
I22
tp3519
(dp3520
g1125
F8.0
ss(I11
I24
tp3521
(dp3522
g1125
F6.0
ss(I8
I20
tp3523
g3032
sg1212
g3286
ssg310
(dp3524
g3031
g3492
s(I8
I24
tp3525
(dp3526
g1125
F7.0
ss(I9
I21
tp3527
(dp3528
g1125
F6.0
ss(I5
I24
tp3529
g1288
s(I10
I24
tp3530
(dp3531
g1125
F17.0
ss(I10
I23
tp3532
(dp3533
g1125
F15.0
ss(I9
I30
tp3534
(dp3535
g1125
F7.0
ss(I8
I35
tp3536
(dp3537
g1125
F7.0
ss(I8
I32
tp3538
(dp3539
g1125
F13.0
ss(I8
I25
tp3540
g1863
s(I12
I29
tp3541
g2111
s(I10
I25
tp3542
(dp3543
g1125
F7.0
ss(I11
I25
tp3544
(dp3545
g1125
F7.0
ss(I10
I35
tp3546
(dp3547
g1125
F6.0
ss(I2
I29
tp3548
(dp3549
g1125
F6.0
ss(I5
I23
tp3550
(dp3551
g1125
F8.0
ss(I9
I33
tp3552
(dp3553
g1125
F7.0
ss(I9
I34
tp3554
(dp3555
g1125
F15.0
ss(I8
I29
tp3556
(dp3557
g1125
F7.0
ss(I9
I24
tp3558
(dp3559
g1125
F14.0
ss(I8
I26
tp3560
(dp3561
g1125
F13.0
ss(I9
I27
tp3562
(dp3563
g1125
F6.0
ss(I10
I33
tp3564
(dp3565
g1125
F13.0
ss(I9
I1
tp3566
(dp3567
g1125
F6.0
ss(I10
I21
tp3568
(dp3569
g1125
F7.0
ss(I6
I24
tp3570
(dp3571
g1125
F8.0
ss(I6
I3
tp3572
(dp3573
g1125
F11.0
ss(I10
I27
tp3574
(dp3575
g1125
F7.0
ssg3340
g3149
s(I9
I32
tp3576
(dp3577
g1125
F8.0
ss(I8
I30
tp3578
(dp3579
g1125
F6.0
ss(I9
I31
tp3580
(dp3581
g1125
F8.0
ss(I11
I17
tp3582
(dp3583
g1125
F7.0
ss(I8
I34
tp3584
(dp3585
g1125
F8.0
ssg3442
g3371
s(I4
I30
tp3586
(dp3587
g1125
F8.0
sssg312
(dp3588
sg314
(dp3589
(I5
I4
tp3590
(dp3591
g1125
F8.0
ssg1827
(dp3592
g1125
F7.0
ss(I6
I6
tp3593
(dp3594
g1125
F6.0
ssg3120
g3265
ssg316
(dp3595
(I7
I25
tp3596
g1127
s(I8
I24
tp3597
(dp3598
g1125
F8.0
ss(I9
I21
tp3599
(dp3600
g1125
F6.0
ss(I8
I21
tp3601
(dp3602
g1125
F6.0
ss(I6
I23
tp3603
g1364
s(I3
I17
tp3604
g1744
s(I7
I24
tp3605
(dp3606
g1125
F6.0
ss(I8
I22
tp3607
(dp3608
g1125
F7.0
ss(I9
I23
tp3609
(dp3610
g1125
F8.0
ss(I4
I22
tp3611
(dp3612
g1125
F7.0
ss(I2
I39
tp3613
(dp3614
g1125
F6.0
ss(I1
I18
tp3615
g2832
s(I8
I23
tp3616
(dp3617
g1125
F7.0
ss(I9
I22
tp3618
(dp3619
g1125
F7.0
ss(I6
I24
tp3620
(dp3621
g1125
F6.0
ss(I5
I22
tp3622
(dp3623
g1125
F8.0
ssg2352
g3225
ssg318
(dp3624
(I4
I19
tp3625
(dp3626
g1125
F6.0
ss(I6
I10
tp3627
(dp3628
g1125
F10.0
ss(I4
I10
tp3629
(dp3630
g1125
F27.0
ss(I10
I3
tp3631
(dp3632
g1125
F6.0
ss(I7
I2
tp3633
(dp3634
g1125
F15.0
ssg3590
(dp3635
g1125
F7.0
ssg3272
g2370
s(I8
I23
tp3636
(dp3637
g1125
F6.0
ss(I2
I15
tp3638
(dp3639
g1125
F13.0
sssg320
(dp3640
(I7
I25
tp3641
g1129
s(I8
I24
tp3642
(dp3643
g1125
F9.0
ss(I6
I7
tp3644
g3626
s(I4
I19
tp3645
(dp3646
g1125
F7.0
ss(I9
I21
tp3647
(dp3648
g1125
F16.0
ss(I5
I18
tp3649
(dp3650
g1125
F8.0
ss(I7
I19
tp3651
(dp3652
g1125
F7.0
ss(I3
I23
tp3653
(dp3654
g1125
F8.0
ss(I8
I21
tp3655
(dp3656
g1125
F23.0
ssg1624
g1292
sg1878
g1366
s(I5
I21
tp3657
(dp3658
g1125
F6.0
ssg2268
g1466
sg1383
g1537
s(I6
I16
tp3659
(dp3660
g1125
F8.0
ss(I7
I21
tp3661
(dp3662
g1125
F8.0
ss(I1
I15
tp3663
g1701
s(I9
I25
tp3664
(dp3665
g1125
F8.0
ssg2379
g1798
s(I7
I24
tp3666
(dp3667
g1125
F9.0
ssg2005
g1867
sg2892
g1990
s(I12
I29
tp3668
g2116
sg1902
g2220
s(I8
I22
tp3669
(dp3670
g1125
F29.0
ssg2158
g2255
s(I9
I23
tp3671
(dp3672
g1125
F7.0
ss(I8
I19
tp3673
(dp3674
g1125
F8.0
ss(I4
I22
tp3675
(dp3676
g1125
F11.0
ss(I5
I23
tp3677
(dp3678
g1125
F15.0
ss(I7
I20
tp3679
(dp3680
g1125
F6.0
ssg1932
g2615
s(I8
I16
tp3681
(dp3682
g1125
F9.0
ss(I3
I26
tp3683
(dp3684
g1125
F6.0
ss(I1
I18
tp3685
g2834
s(I8
I23
tp3686
(dp3687
g1125
F19.0
ss(I9
I22
tp3688
(dp3689
g1125
F6.0
ssg2854
g2872
s(I10
I21
tp3690
(dp3691
g1125
F6.0
ss(I6
I24
tp3692
(dp3693
g1125
F11.0
ssg1597
g3036
s(I4
I23
tp3694
(dp3695
g1125
F10.0
ss(I6
I22
tp3696
(dp3697
g1125
F14.0
ss(I5
I22
tp3698
(dp3699
g1125
F19.0
ss(I7
I23
tp3700
(dp3701
g1125
F12.0
ss(I8
I17
tp3702
(dp3703
g1125
F19.0
ss(I6
I19
tp3704
(dp3705
g1125
F6.0
ss(I2
I15
tp3706
(dp3707
g1125
F9.0
sssg322
(dp3708
(I6
I10
tp3709
(dp3710
g1125
F6.0
ss(I6
I4
tp3711
(dp3712
g1125
F6.0
sssg324
(dp3713
g3031
g3498
s(I1
I17
tp3714
(dp3715
g1125
F12.0
ss(I7
I25
tp3716
g1132
s(I8
I24
tp3717
(dp3718
g1125
F16.0
ssg1128
g3650
s(I9
I21
tp3719
(dp3720
g1125
F52.0
ss(I11
I22
tp3721
g1225
s(I7
I19
tp3722
(dp3723
g1125
F7.0
ss(I6
I25
tp3724
(dp3725
g1125
F7.0
ssg30
g1235
s(I12
I28
tp3726
(dp3727
g1125
F6.0
ss(I8
I15
tp3728
(dp3729
g1125
F32.0
ss(I9
I14
tp3730
(dp3731
g1125
F8.0
ss(I3
I23
tp3732
(dp3733
g1125
F7.0
ss(I8
I21
tp3734
(dp3735
g1125
F53.0
ssg1624
g1296
s(I10
I24
tp3736
(dp3737
g1125
F10.0
ss(I9
I16
tp3738
(dp3739
g1125
F10.0
ssg1878
g1370
s(I5
I21
tp3740
(dp3741
g1125
F19.0
ss(I10
I23
tp3742
(dp3743
g1125
F9.0
ssg2268
g1470
s(I8
I18
tp3744
g1540
s(I6
I13
tp3745
(dp3746
g1125
F6.0
ss(I4
I21
tp3747
(dp3748
g1125
F8.0
ssg1387
g1619
s(I6
I16
tp3749
(dp3750
g1125
F9.0
ssg1391
g1675
s(I7
I21
tp3751
(dp3752
g1125
F25.0
ss(I1
I15
tp3753
g1702
s(I8
I28
tp3754
(dp3755
g1125
F8.0
ss(I9
I25
tp3756
(dp3757
g1125
F12.0
ssg2889
g1756
s(I7
I15
tp3758
g1801
s(I7
I24
tp3759
(dp3760
g1125
F11.0
ss(I8
I6
tp3761
(dp3762
g1125
F21.0
ssg2005
g1871
s(I6
I4
tp3763
(dp3764
g1125
F7.0
ssg2892
g1994
sg2538
g2120
s(I9
I13
tp3765
(dp3766
g1125
F7.0
ss(I8
I22
tp3767
(dp3768
g1125
F35.0
ss(I9
I23
tp3769
(dp3770
g1125
F17.0
ss(I6
I20
tp3771
(dp3772
g1125
F18.0
ssg1489
g2396
s(I11
I20
tp3773
(dp3774
g1125
F9.0
ss(I10
I20
tp3775
(dp3776
g1125
F7.0
ss(I7
I17
tp3777
(dp3778
g1125
F6.0
ss(I5
I9
tp3779
(dp3780
g1125
F6.0
ss(I10
I25
tp3781
(dp3782
g1125
F6.0
ss(I10
I15
tp3783
(dp3784
g1125
F6.0
ss(I8
I19
tp3785
(dp3786
g1125
F16.0
ss(I4
I22
tp3787
(dp3788
g1125
F6.0
ss(I5
I23
tp3789
(dp3790
g1125
F27.0
ssg1926
g2559
s(I7
I20
tp3791
(dp3792
g1125
F13.0
ssg1932
g2617
s(I9
I24
tp3793
(dp3794
g1125
F14.0
ss(I8
I16
tp3795
(dp3796
g1125
F30.0
ss(I6
I15
tp3797
(dp3798
g1125
F7.0
ss(I7
I14
tp3799
(dp3800
g1125
F15.0
ss(I6
I6
tp3801
(dp3802
g1125
F6.0
ss(I9
I6
tp3803
g2825
s(I8
I26
tp3804
(dp3805
g1125
F11.0
ss(I5
I16
tp3806
(dp3807
g1125
F6.0
ss(I10
I16
tp3808
(dp3809
g1125
F10.0
ss(I7
I13
tp3810
(dp3811
g1125
F7.0
ss(I11
I29
tp3812
(dp3813
g1125
F6.0
ss(I1
I18
tp3814
g2837
s(I9
I12
tp3815
(dp3816
g1125
F11.0
ss(I8
I23
tp3817
(dp3818
g1125
F33.0
ss(I9
I22
tp3819
(dp3820
g1125
F24.0
ssg2854
g2876
s(I10
I21
tp3821
(dp3822
g1125
F26.0
ss(I7
I16
tp3823
g2934
s(I6
I24
tp3824
(dp3825
g1125
F18.0
ssg1198
(dp3826
g1125
F7.0
ss(I8
I14
tp3827
g2995
sg1597
g3038
s(I6
I3
tp3828
(dp3829
g1125
F15.0
ss(I10
I27
tp3830
(dp3831
g1125
F6.0
ss(I6
I22
tp3832
(dp3833
g1125
F17.0
ss(I5
I22
tp3834
(dp3835
g1125
F9.0
ss(I11
I18
tp3836
(dp3837
g1125
F17.0
ssg3340
g3155
s(I7
I23
tp3838
(dp3839
g1125
F9.0
ss(I8
I30
tp3840
(dp3841
g1125
F10.0
ss(I8
I17
tp3842
(dp3843
g1125
F59.0
ssg1212
g3293
s(I10
I28
tp3844
(dp3845
g1125
F6.0
ss(I11
I17
tp3846
(dp3847
g1125
F12.0
ssg3442
g3375
ssg326
(dp3848
g1131
g3725
s(I8
I21
tp3849
(dp3850
g1125
F7.0
ss(I7
I22
tp3851
g1472
s(I4
I31
tp3852
(dp3853
g1125
F6.0
ss(I8
I22
tp3854
(dp3855
g1125
F9.0
ss(I9
I23
tp3856
(dp3857
g1125
F6.0
ss(I8
I36
tp3858
(dp3859
g1125
F6.0
ss(I8
I23
tp3860
(dp3861
g1125
F12.0
ss(I9
I22
tp3862
(dp3863
g1125
F9.0
ss(I5
I22
tp3864
(dp3865
g1125
F7.0
sssg328
(dp3866
(I7
I25
tp3867
g1134
ssg330
(dp3868
(I11
I27
tp3869
(dp3870
g1125
F7.0
ss(I10
I23
tp3871
(dp3872
g1125
F6.0
ss(I10
I30
tp3873
(dp3874
g1125
F6.0
ss(I8
I25
tp3875
g1875
s(I12
I29
tp3876
g2125
s(I10
I25
tp3877
(dp3878
g1125
F7.0
ss(I9
I33
tp3879
(dp3880
g1125
F20.0
sssg332
(dp3881
sg334
(dp3882
sg336
(dp3883
(I7
I1
tp3884
(dp3885
g1125
F7.0
ss(I9
I24
tp3886
(dp3887
g1125
F7.0
ssg3340
g3159
ssg338
(dp3888
g3031
g3500
sg1287
g3531
s(I9
I21
tp3889
(dp3890
g1125
F25.0
ssg1131
g3737
sg30
g1237
s(I11
I27
tp3891
(dp3892
g1125
F6.0
ss(I12
I28
tp3893
(dp3894
g1125
F6.0
ss(I8
I21
tp3895
(dp3896
g1125
F10.0
ss(I10
I24
tp3897
(dp3898
g1125
F7.0
ssg1878
g1376
s(I7
I22
tp3899
g1476
sg1383
g1546
sg3162
(dp3900
g1125
F9.0
ssg1387
g1626
s(I7
I21
tp3901
(dp3902
g1125
F6.0
ss(I12
I27
tp3903
(dp3904
g1125
F7.0
ss(I8
I25
tp3905
g1877
sg2538
g2130
s(I10
I32
tp3906
(dp3907
g1125
F7.0
ss(I8
I22
tp3908
(dp3909
g1125
F12.0
ss(I6
I20
tp3910
(dp3911
g1125
F7.0
ss(I11
I20
tp3912
(dp3913
g1125
F15.0
ss(I10
I20
tp3914
(dp3915
g1125
F9.0
ss(I6
I17
tp3916
(dp3917
g1125
F7.0
ss(I10
I31
tp3918
(dp3919
g1125
F8.0
ss(I11
I30
tp3920
(dp3921
g1125
F8.0
ss(I11
I29
tp3922
(dp3923
g1125
F11.0
ss(I12
I30
tp3924
(dp3925
g1125
F12.0
ss(I9
I22
tp3926
(dp3927
g1125
F7.0
ssg2854
g2882
s(I10
I21
tp3928
(dp3929
g1125
F12.0
ssg1597
g3048
s(I6
I3
tp3930
(dp3931
g1125
F7.0
ss(I10
I27
tp3932
(dp3933
g1125
F10.0
ss(I6
I22
tp3934
(dp3935
g1125
F9.0
ssg3340
g3161
s(I7
I23
tp3936
(dp3937
g1125
F7.0
ss(I8
I17
tp3938
(dp3939
g1125
F8.0
ss(I10
I28
tp3940
(dp3941
g1125
F8.0
ss(I12
I26
tp3942
(dp3943
g1125
F7.0
sssg340
(dp3944
(I8
I24
tp3945
(dp3946
g1125
F6.0
ss(I9
I21
tp3947
(dp3948
g1125
F15.0
ss(I10
I23
tp3949
(dp3950
g1125
F7.0
ss(I8
I25
tp3951
g1880
sg2538
g2132
s(I9
I23
tp3952
(dp3953
g1125
F7.0
sssg342
(dp3954
sg344
(dp3955
sg346
(dp3956
sg348
(dp3957
sg350
(dp3958
(I7
I25
tp3959
g1143
s(I2
I32
tp3960
(dp3961
g1125
F18.0
ss(I1
I40
tp3962
g1353
s(I4
I31
tp3963
(dp3964
g1125
F7.0
ss(I8
I32
tp3965
(dp3966
g1125
F6.0
ss(I7
I24
tp3967
(dp3968
g1125
F6.0
ss(I2
I33
tp3969
g2363
s(I2
I24
tp3970
(dp3971
g1125
F8.0
ssg1160
g2591
s(I1
I30
tp3972
(dp3973
g1125
F6.0
ss(I2
I34
tp3974
(dp3975
g1125
F13.0
ss(I1
I26
tp3976
(dp3977
g1125
F6.0
ss(I3
I26
tp3978
(dp3979
g1125
F8.0
ss(I9
I27
tp3980
(dp3981
g1125
F6.0
ss(I6
I24
tp3982
(dp3983
g1125
F6.0
ss(I1
I36
tp3984
(dp3985
g1125
F7.0
ss(I5
I22
tp3986
(dp3987
g1125
F9.0
ss(I2
I31
tp3988
(dp3989
g1125
F7.0
ss(I4
I25
tp3990
(dp3991
g1125
F14.0
ss(I1
I32
tp3992
(dp3993
g1125
F6.0
sssg352
(dp3994
g1361
g1148
s(I8
I24
tp3995
(dp3996
g1125
F11.0
ss(I8
I21
tp3997
(dp3998
g1125
F6.0
ss(I4
I31
tp3999
(dp4000
g1125
F6.0
ss(I9
I25
tp4001
(dp4002
g1125
F7.0
ss(I7
I24
tp4003
(dp4004
g1125
F9.0
ssg2005
g1886
s(I11
I29
tp4005
(dp4006
g1125
F6.0
ss(I8
I23
tp4007
(dp4008
g1125
F10.0
ss(I6
I24
tp4009
(dp4010
g1125
F9.0
sssg354
(dp4011
sg356
(dp4012
sg358
(dp4013
sg360
(dp4014
sg362
(dp4015
(I8
I24
tp4016
(dp4017
g1125
F11.0
ssg1128
g3660
s(I9
I21
tp4018
(dp4019
g1125
F14.0
ssg1131
g3750
s(I8
I15
tp4020
(dp4021
g1125
F6.0
ss(I8
I21
tp4022
(dp4023
g1125
F15.0
ss(I6
I23
tp4024
g1390
sg1383
g1554
sg1385
(dp4025
g1125
F9.0
ssg1387
g1633
sg2277
g1710
s(I3
I28
tp4026
(dp4027
g1125
F6.0
ssg2889
g1762
s(I7
I24
tp4028
(dp4029
g1125
F7.0
ssg2005
g1890
s(I6
I4
tp4030
(dp4031
g1125
F8.0
ssg3590
(dp4032
g1125
F6.0
ssg2892
g2004
s(I5
I17
tp4033
(dp4034
g1125
F12.0
ss(I8
I22
tp4035
(dp4036
g1125
F13.0
ss(I6
I20
tp4037
(dp4038
g1125
F18.0
ssg1489
g2405
s(I8
I19
tp4039
(dp4040
g1125
F6.0
ss(I5
I23
tp4041
(dp4042
g1125
F6.0
ss(I4
I13
tp4043
(dp4044
g1125
F7.0
ssg3685
g2845
s(I8
I23
tp4045
(dp4046
g1125
F8.0
ss(I9
I22
tp4047
(dp4048
g1125
F7.0
ssg2854
g2886
s(I5
I19
tp4049
(dp4050
g1125
F7.0
ssg1597
g3055
s(I6
I22
tp4051
(dp4052
g1125
F8.0
ss(I11
I18
tp4053
(dp4054
g1125
F6.0
ssg3120
g3271
s(I6
I19
tp4055
(dp4056
g1125
F7.0
ss(I2
I15
tp4057
(dp4058
g1125
F6.0
sssg364
(dp4059
(I8
I32
tp4060
(dp4061
g1125
F11.0
ss(I10
I33
tp4062
(dp4063
g1125
F6.0
ss(I13
I33
tp4064
(dp4065
g1125
F6.0
ss(I6
I24
tp4066
(dp4067
g1125
F6.0
ss(I1
I29
tp4068
(dp4069
g1125
F6.0
sssg366
(dp4070
g1287
g3537
s(I8
I24
tp4071
(dp4072
g1125
F8.0
ssg2121
(dp4073
g1125
F8.0
ss(I10
I27
tp4074
(dp4075
g1125
F7.0
ss(I8
I31
tp4076
(dp4077
g1125
F14.0
ss(I8
I28
tp4078
(dp4079
g1125
F7.0
ss(I11
I31
tp4080
(dp4081
g1125
F6.0
ss(I8
I32
tp4082
(dp4083
g1125
F22.0
ss(I9
I30
tp4084
(dp4085
g1125
F8.0
ssg2005
g1892
sg2538
g2142
s(I8
I22
tp4086
(dp4087
g1125
F6.0
ssg1144
g2480
s(I9
I33
tp4088
(dp4089
g1125
F17.0
ss(I8
I29
tp4090
(dp4091
g1125
F6.0
ss(I9
I24
tp4092
(dp4093
g1125
F8.0
ss(I10
I31
tp4094
(dp4095
g1125
F10.0
ssg3396
g2751
s(I8
I26
tp4096
(dp4097
g1125
F24.0
ss(I11
I29
tp4098
(dp4099
g1125
F7.0
ss(I12
I30
tp4100
(dp4101
g1125
F10.0
ss(I10
I33
tp4102
(dp4103
g1125
F8.0
ss(I13
I33
tp4104
(dp4105
g1125
F8.0
ssg3207
(dp4106
g1125
F6.0
ss(I4
I34
tp4107
(dp4108
g1125
F8.0
ss(I10
I34
tp4109
g2969
s(I9
I32
tp4110
(dp4111
g1125
F8.0
ss(I8
I30
tp4112
(dp4113
g1125
F8.0
ssg2687
(dp4114
g1125
F14.0
ssg3442
g3379
ssg368
(dp4115
g1128
g3662
s(I9
I21
tp4116
(dp4117
g1125
F10.0
ssg1131
g3752
s(I7
I19
tp4118
(dp4119
g1125
F15.0
ss(I8
I21
tp4120
(dp4121
g1125
F7.0
ssg1624
g1308
sg1475
g3902
sg1878
g1394
s(I10
I23
tp4122
(dp4123
g1125
F6.0
ssg3340
g3165
s(I9
I30
tp4124
(dp4125
g1125
F6.0
ssg3162
(dp4126
g1125
F9.0
ssg1387
g1635
s(I10
I30
tp4127
(dp4128
g1125
F6.0
ss(I7
I15
tp4129
g1811
s(I7
I24
tp4130
(dp4131
g1125
F8.0
ss(I5
I17
tp4132
(dp4133
g1125
F15.0
ss(I7
I18
tp4134
(dp4135
g1125
F19.0
ssg1713
(dp4136
g1125
F7.0
ssg2158
g2276
sg1485
(dp4137
g1125
F7.0
ss(I9
I23
tp4138
(dp4139
g1125
F9.0
ss(I6
I20
tp4140
(dp4141
g1125
F7.0
ss(I7
I17
tp4142
(dp4143
g1125
F17.0
ssg1144
g2482
s(I8
I19
tp4144
(dp4145
g1125
F8.0
ss(I6
I17
tp4146
(dp4147
g1125
F8.0
ss(I5
I23
tp4148
(dp4149
g1125
F11.0
ss(I4
I13
tp4150
(dp4151
g1125
F8.0
ssg1493
(dp4152
g1125
F6.0
ssg1932
g2627
s(I9
I24
tp4153
(dp4154
g1125
F6.0
ss(I8
I16
tp4155
(dp4156
g1125
F6.0
ssg1433
g2710
sg1497
(dp4157
g1125
F6.0
ssg3361
(dp4158
g1125
F11.0
ssg1240
(dp4159
g1125
F6.0
ss(I4
I18
tp4160
(dp4161
g1125
F8.0
ss(I5
I19
tp4162
(dp4163
g1125
F8.0
ss(I7
I16
tp4164
g2937
s(I6
I24
tp4165
(dp4166
g1125
F9.0
ssg1597
g3057
s(I6
I3
tp4167
(dp4168
g1125
F7.0
ss(I8
I30
tp4169
(dp4170
g1125
F9.0
ssg1507
(dp4171
g1125
F7.0
ss(I8
I17
tp4172
(dp4173
g1125
F8.0
ssg1212
g3303
sg1137
(dp4174
g1125
F7.0
ss(I9
I16
tp4175
(dp4176
g1125
F7.0
sssg370
(dp4177
(I7
I25
tp4178
g1171
sg1287
g3555
s(I9
I28
tp4179
(dp4180
g1125
F7.0
ss(I8
I32
tp4181
(dp4182
g1125
F6.0
ss(I9
I30
tp4183
(dp4184
g1125
F6.0
ss(I8
I22
tp4185
(dp4186
g1125
F7.0
ss(I9
I23
tp4187
(dp4188
g1125
F6.0
ss(I9
I25
tp4189
(dp4190
g1125
F10.0
ss(I9
I24
tp4191
(dp4192
g1125
F16.0
ss(I10
I31
tp4193
(dp4194
g1125
F9.0
ss(I8
I26
tp4195
(dp4196
g1125
F7.0
ss(I9
I1
tp4197
(dp4198
g1125
F6.0
ss(I9
I22
tp4199
(dp4200
g1125
F6.0
ss(I5
I22
tp4201
(dp4202
g1125
F7.0
ss(I9
I32
tp4203
(dp4204
g1125
F6.0
ss(I8
I30
tp4205
(dp4206
g1125
F7.0
ss(I10
I30
tp4207
(dp4208
g1125
F8.0
sssg372
(dp4209
sg374
(dp4210
g2258
(dp4211
g1125
F6.0
ssg3272
g2378
ssg376
(dp4212
sg378
(dp4213
g3644
g3632
s(I9
I21
tp4214
(dp4215
g1125
F13.0
ssg2121
(dp4216
g1125
F11.0
ssg1705
(dp4217
g1125
F7.0
ssg68
g1530
s(I6
I4
tp4218
(dp4219
g1125
F7.0
ss(I7
I1
tp4220
(dp4221
g1125
F6.0
ssg2158
g2279
sg1966
(dp4222
g1125
F14.0
ss(I10
I31
tp4223
(dp4224
g1125
F6.0
ss(I10
I16
tp4225
(dp4226
g1125
F6.0
ssg4109
g2973
ssg380
(dp4227
sg382
(dp4228
sg384
(dp4229
sg386
(dp4230
g2158
g2283
sg1718
(dp4231
g1125
F8.0
ssg1597
g3060
ssg388
(dp4232
sg390
(dp4233
(I8
I21
tp4234
(dp4235
g1125
F6.0
ssg1624
g1314
s(I5
I21
tp4236
(dp4237
g1125
F6.0
ssg2158
g2287
s(I5
I20
tp4238
g2407
s(I4
I22
tp4239
(dp4240
g1125
F6.0
ss(I2
I19
tp4241
(dp4242
g1125
F7.0
ssg1932
g2637
s(I6
I24
tp4243
(dp4244
g1125
F7.0
ssg1837
(dp4245
g1125
F9.0
ssg1730
g3253
ssg392
(dp4246
sg394
(dp4247
g18
g1216
s(I5
I8
tp4248
g3591
sg3644
g3635
s(I9
I21
tp4249
(dp4250
g1125
F6.0
ss(I6
I10
tp4251
(dp4252
g1125
F6.0
ss(I4
I10
tp4253
(dp4254
g1125
F6.0
ss(I7
I5
tp4255
(dp4256
g1125
F9.0
ssg1878
g1402
s(I6
I16
tp4257
g4032
s(I9
I12
tp4258
(dp4259
g1125
F6.0
ss(I6
I6
tp4260
(dp4261
g1125
F10.0
ss(I8
I1
tp4262
(dp4263
g1125
F11.0
ss(I2
I15
tp4264
(dp4265
g1125
F11.0
ss(I10
I2
tp4266
(dp4267
g1125
F6.0
sssg396
(dp4268
sg398
(dp4269
sg400
(dp4270
(I6
I9
tp4271
(dp4272
g1125
F6.0
ss(I8
I24
tp4273
(dp4274
g1125
F7.0
ss(I4
I10
tp4275
(dp4276
g1125
F10.0
ssg1964
g3001
ssg402
(dp4277
sg404
(dp4278
sg406
(dp4279
sg408
(dp4280
(I8
I24
tp4281
(dp4282
g1125
F6.0
ss(I9
I21
tp4283
(dp4284
g1125
F13.0
ss(I8
I15
tp4285
(dp4286
g1125
F6.0
ss(I8
I21
tp4287
(dp4288
g1125
F10.0
ssg1878
g1410
sg1810
g4135
s(I7
I15
tp4289
g1819
s(I6
I4
tp4290
(dp4291
g1125
F8.0
ssg2711
g2055
s(I8
I22
tp4292
(dp4293
g1125
F9.0
ssg2158
g2291
s(I9
I23
tp4294
(dp4295
g1125
F6.0
ssg1489
g2412
s(I9
I24
tp4296
(dp4297
g1125
F6.0
ss(I10
I16
tp4298
(dp4299
g1125
F6.0
ss(I9
I22
tp4300
(dp4301
g1125
F7.0
ssg1597
g3064
ssg410
(dp4302
sg412
(dp4303
g3401
(dp4304
g1125
F6.0
sssg414
(dp4305
sg416
(dp4306
g3488
g3456
s(I8
I24
tp4307
(dp4308
g1125
F8.0
ssg1475
g3907
sg3340
g3172
s(I7
I21
tp4309
g4136
s(I1
I15
tp4310
g1714
s(I9
I25
tp4311
(dp4312
g1125
F8.0
ss(I9
I30
tp4313
(dp4314
g1125
F6.0
ss(I10
I29
tp4315
(dp4316
g1125
F9.0
ss(I8
I22
tp4317
(dp4318
g1125
F7.0
ss(I5
I23
tp4319
(dp4320
g1125
F6.0
ss(I9
I33
tp4321
(dp4322
g1125
F6.0
ss(I9
I24
tp4323
(dp4324
g1125
F12.0
ss(I8
I26
tp4325
(dp4326
g1125
F11.0
ss(I8
I34
tp4327
(dp4328
g1125
F9.0
ss(I7
I23
tp4329
(dp4330
g1125
F9.0
ss(I8
I30
tp4331
(dp4332
g1125
F10.0
ss(I10
I28
tp4333
(dp4334
g1125
F8.0
ss(I9
I35
tp4335
(dp4336
g1125
F6.0
sssg418
(dp4337
sg420
(dp4338
sg422
(dp4339
(I9
I21
tp4340
(dp4341
g1125
F10.0
ssg1131
g3766
s(I8
I21
tp4342
(dp4343
g1125
F9.0
ssg1383
g1566
s(I7
I8
tp4344
(dp4345
g1125
F6.0
ssg2889
g1766
sg2379
g1821
sg2892
g2007
s(I8
I22
tp4346
(dp4347
g1125
F13.0
ss(I11
I20
tp4348
(dp4349
g1125
F6.0
ss(I8
I19
tp4350
(dp4351
g1125
F7.0
ssg1926
g2566
s(I4
I13
tp4352
(dp4353
g1125
F7.0
ss(I8
I16
tp4354
(dp4355
g1125
F6.0
ss(I4
I10
tp4356
(dp4357
g1125
F9.0
ss(I8
I23
tp4358
(dp4359
g1125
F9.0
ss(I6
I6
tp4360
(dp4361
g1125
F6.0
ss(I7
I7
tp4362
(dp4363
g1125
F6.0
ssg1597
g3068
s(I6
I3
tp4364
(dp4365
g1125
F6.0
ss(I2
I15
tp4366
(dp4367
g1125
F6.0
sssg424
(dp4368
sg426
(dp4369
sg428
(dp4370
g3488
g3435
s(I6
I9
tp4371
(dp4372
g1125
F6.0
ss(I9
I27
tp4373
(dp4374
g1125
F11.0
ssg3031
g3508
sg1361
g1163
sg1126
g3608
s(I8
I24
tp4375
(dp4376
g1125
F46.0
ssg1128
g3670
sg1131
g3768
s(I10
I18
tp4377
(dp4378
g1125
F11.0
ss(I7
I19
tp4379
(dp4380
g1125
F6.0
ssg1471
g3855
s(I8
I15
tp4381
(dp4382
g1125
F20.0
ssg2258
(dp4383
g1125
F6.0
ssg3043
(dp4384
g1125
F8.0
ss(I3
I23
tp4385
(dp4386
g1125
F7.0
ss(I10
I13
tp4387
(dp4388
g1125
F6.0
ssg1624
g1318
sg1475
g3909
s(I9
I16
tp4389
(dp4390
g1125
F11.0
ssg1878
g1412
s(I5
I21
tp4391
(dp4392
g1125
F6.0
ss(I10
I23
tp4393
(dp4394
g1125
F8.0
ss(I10
I25
tp4395
(dp4396
g1125
F16.0
ss(I9
I9
tp4397
g1525
s(I8
I31
tp4398
(dp4399
g1125
F14.0
ssg4124
(dp4400
g1125
F6.0
ssg1383
g1568
sg1385
(dp4401
g1125
F7.0
ss(I4
I21
tp4402
(dp4403
g1125
F6.0
ssg1389
g4036
s(I8
I35
tp4404
g4087
sg1170
g4186
sg3058
g1738
s(I8
I28
tp4405
(dp4406
g1125
F11.0
ss(I9
I25
tp4407
(dp4408
g1125
F27.0
ssg2889
g1768
s(I11
I31
tp4409
(dp4410
g1125
F6.0
ss(I8
I32
tp4411
(dp4412
g1125
F13.0
ss(I7
I24
tp4413
(dp4414
g1125
F32.0
ssg2005
g1907
sg2892
g2009
s(I5
I17
tp4415
(dp4416
g1125
F11.0
ssg1818
g4293
sg2538
g2157
sg1713
g4318
s(I9
I13
tp4417
g4347
s(I8
I34
tp4418
(dp4419
g1125
F9.0
ssg2158
g2296
s(I9
I23
tp4420
(dp4421
g1125
F8.0
ssg1489
g2416
s(I7
I17
tp4422
(dp4423
g1125
F6.0
ss(I4
I25
tp4424
(dp4425
g1125
F6.0
ss(I10
I15
tp4426
(dp4427
g1125
F7.0
ssg1144
g2490
s(I8
I19
tp4428
(dp4429
g1125
F30.0
ss(I4
I22
tp4430
(dp4431
g1125
F7.0
ssg1922
(dp4432
g1125
F23.0
ssg1423
(dp4433
g1125
F6.0
ss(I5
I23
tp4434
(dp4435
g1125
F25.0
ss(I2
I13
tp4436
(dp4437
g1125
F7.0
ss(I9
I11
tp4438
(dp4439
g1125
F9.0
ss(I8
I29
tp4440
(dp4441
g1125
F12.0
ssg1932
g2642
s(I9
I24
tp4442
(dp4443
g1125
F8.0
ss(I8
I16
tp4444
(dp4445
g1125
F26.0
ssg4223
(dp4446
g1125
F6.0
ss(I7
I14
tp4447
(dp4448
g1125
F12.0
ssg1433
g2713
s(I11
I30
tp4449
(dp4450
g1125
F10.0
ssg3396
g2765
s(I3
I26
tp4451
(dp4452
g1125
F6.0
ssg1181
(dp4453
g1125
F7.0
ss(I8
I26
tp4454
(dp4455
g1125
F16.0
ss(I5
I16
tp4456
(dp4457
g1125
F6.0
ss(I11
I29
tp4458
(dp4459
g1125
F9.0
ss(I12
I30
tp4460
(dp4461
g1125
F10.0
ss(I9
I12
tp4462
(dp4463
g1125
F9.0
ss(I13
I33
tp4464
(dp4465
g1125
F6.0
ss(I8
I23
tp4466
(dp4467
g1125
F9.0
ssg2854
g2896
s(I5
I19
tp4468
(dp4469
g1125
F10.0
ss(I10
I21
tp4470
(dp4471
g1125
F7.0
ss(I6
I24
tp4472
(dp4473
g1125
F45.0
ss(I11
I24
tp4474
(dp4475
g1125
F11.0
ssg1964
g3005
sg3107
g3022
sg1503
(dp4476
g1125
F6.0
ssg1597
g3070
s(I5
I25
tp4477
(dp4478
g1125
F8.0
ss(I4
I23
tp4479
(dp4480
g1125
F13.0
ss(I10
I27
tp4481
(dp4482
g1125
F12.0
ss(I6
I22
tp4483
(dp4484
g1125
F21.0
ss(I5
I22
tp4485
(dp4486
g1125
F18.0
ssg3340
g3174
s(I7
I23
tp4487
(dp4488
g1125
F16.0
ss(I8
I30
tp4489
(dp4490
g1125
F15.0
ssg2687
(dp4491
g1125
F6.0
ss(I8
I17
tp4492
(dp4493
g1125
F39.0
ssg1212
g3309
s(I10
I28
tp4494
(dp4495
g1125
F6.0
ss(I6
I19
tp4496
(dp4497
g1125
F6.0
ss(I11
I25
tp4498
(dp4499
g1125
F13.0
ss(I12
I26
tp4500
(dp4501
g1125
F7.0
ss(I2
I21
tp4502
(dp4503
g1125
F6.0
ssg3442
g3387
ssg430
(dp4504
sg432
(dp4505
sg434
(dp4506
g3488
g3437
s(I10
I17
tp4507
g3475
sg3031
g3510
sg1361
g1165
sg1503
(dp4508
g1125
F8.0
ssg1126
g3610
s(I8
I24
tp4509
(dp4510
g1125
F6.0
ssg1128
g3672
s(I9
I21
tp4511
(dp4512
g1125
F16.0
ssg1131
g3770
sg1471
g3857
sg2121
(dp4513
g1125
F9.0
ss(I10
I27
tp4514
(dp4515
g1125
F10.0
ssg1166
(dp4516
g1125
F6.0
ss(I8
I15
tp4517
(dp4518
g1125
F11.0
ss(I8
I21
tp4519
(dp4520
g1125
F6.0
ssg1624
g1322
sg1878
g1416
s(I5
I21
tp4521
(dp4522
g1125
F6.0
ssg1879
g3953
s(I10
I23
tp4523
(dp4524
g1125
F7.0
ss(I7
I22
tp4525
g1488
s(I9
I30
tp4526
(dp4527
g1125
F9.0
ssg1383
g1570
sg1387
g1641
sg1810
g4139
sg1170
g4188
sg3182
g2540
s(I8
I28
tp4528
(dp4529
g1125
F18.0
ss(I9
I25
tp4530
(dp4531
g1125
F17.0
ss(I10
I30
tp4532
(dp4533
g1125
F10.0
ssg1479
(dp4534
g1125
F6.0
ss(I8
I32
tp4535
(dp4536
g1125
F9.0
ss(I7
I24
tp4537
(dp4538
g1125
F9.0
ssg2005
g1911
s(I6
I4
tp4539
(dp4540
g1125
F9.0
ssg2892
g2011
s(I5
I17
tp4541
(dp4542
g1125
F17.0
ssg1818
g4295
sg2155
g2088
sg2538
g2161
sg3162
(dp4543
g1125
F9.0
ss(I9
I2
tp4544
(dp4545
g1125
F7.0
ss(I8
I22
tp4546
g4421
sg2158
g2298
s(I10
I25
tp4547
(dp4548
g1125
F11.0
ss(I6
I20
tp4549
(dp4550
g1125
F10.0
ssg1489
g2418
s(I11
I20
tp4551
(dp4552
g1125
F16.0
ss(I11
I25
tp4553
(dp4554
g1125
F7.0
ssg1144
g2492
s(I8
I19
tp4555
(dp4556
g1125
F6.0
ss(I5
I23
tp4557
(dp4558
g1125
F7.0
ss(I9
I33
tp4559
(dp4560
g1125
F8.0
ss(I8
I29
tp4561
(dp4562
g1125
F21.0
ssg1932
g2644
s(I9
I24
tp4563
(dp4564
g1125
F7.0
ss(I8
I16
tp4565
(dp4566
g1125
F8.0
ss(I6
I15
tp4567
(dp4568
g1125
F6.0
ss(I7
I14
tp4569
(dp4570
g1125
F6.0
ssg1433
g2715
s(I11
I30
tp4571
(dp4572
g1125
F7.0
ssg2854
g2898
s(I8
I26
tp4573
(dp4574
g1125
F7.0
ss(I9
I27
tp4575
(dp4576
g1125
F13.0
ss(I1
I18
tp4577
g2847
s(I12
I30
tp4578
(dp4579
g1125
F18.0
ss(I9
I12
tp4580
(dp4581
g1125
F7.0
ss(I3
I25
tp4582
(dp4583
g1125
F6.0
ss(I8
I23
tp4584
(dp4585
g1125
F7.0
ss(I6
I6
tp4586
(dp4587
g1125
F9.0
ss(I9
I22
tp4588
(dp4589
g1125
F8.0
ss(I10
I21
tp4590
(dp4591
g1125
F12.0
ss(I7
I16
tp4592
g2939
s(I6
I24
tp4593
(dp4594
g1125
F13.0
ss(I11
I24
tp4595
(dp4596
g1125
F10.0
ss(I8
I1
tp4597
(dp4598
g1125
F7.0
ssg1597
g3072
s(I6
I22
tp4599
(dp4600
g1125
F6.0
ss(I5
I22
tp4601
(dp4602
g1125
F7.0
ss(I8
I30
tp4603
(dp4604
g1125
F9.0
ss(I4
I25
tp4605
(dp4606
g1125
F8.0
ss(I8
I17
tp4607
(dp4608
g1125
F21.0
ssg1212
g3311
s(I10
I28
tp4609
(dp4610
g1125
F7.0
ss(I6
I19
tp4611
(dp4612
g1125
F6.0
ssg1137
(dp4613
g1125
F7.0
ssg3442
g3389
ssg436
(dp4614
(I9
I21
tp4615
(dp4616
g1125
F7.0
ssg1131
g3776
sg1475
g3915
s(I10
I23
tp4617
(dp4618
g1125
F6.0
ss(I10
I15
tp4619
(dp4620
g1125
F7.0
ssg1433
g2719
s(I10
I16
tp4621
(dp4622
g1125
F8.0
ssg3104
g2941
ssg438
(dp4623
sg440
(dp4624
g3488
g3441
sg1287
g3545
s(I8
I24
tp4625
(dp4626
g1125
F9.0
ss(I9
I21
tp4627
(dp4628
g1125
F9.0
ss(I10
I23
tp4629
(dp4630
g1125
F9.0
ss(I10
I3
tp4631
g4222
s(I7
I24
tp4632
(dp4633
g1125
F7.0
ss(I8
I25
tp4634
g1967
sg2892
g2017
sg2538
g2165
sg4546
g4499
sg1487
g4554
sg1932
g2648
s(I9
I24
tp4635
(dp4636
g1125
F10.0
ss(I8
I26
tp4637
(dp4638
g1125
F6.0
ss(I11
I29
tp4639
(dp4640
g1125
F7.0
ss(I12
I30
tp4641
(dp4642
g1125
F7.0
ss(I9
I1
tp4643
(dp4644
g1125
F7.0
ss(I8
I23
tp4645
(dp4646
g1125
F11.0
ss(I6
I24
tp4647
(dp4648
g1125
F7.0
ssg3340
g3180
s(I7
I23
tp4649
(dp4650
g1125
F14.0
ss(I8
I34
tp4651
(dp4652
g1125
F9.0
sssg442
(dp4653
(I6
I14
tp4654
g1772
sg2379
g1825
s(I4
I17
tp4655
g2301
s(I8
I16
tp4656
(dp4657
g1125
F6.0
ss(I7
I14
tp4658
(dp4659
g1125
F9.0
ss(I4
I18
tp4660
(dp4661
g1125
F6.0
ss(I8
I20
tp4662
g3077
ssg444
(dp4663
sg446
(dp4664
(I4
I10
tp4665
(dp4666
g1125
F8.0
ss(I3
I11
tp4667
g1699
s(I6
I4
tp4668
(dp4669
g1125
F7.0
ss(I5
I13
tp4670
(dp4671
g1125
F6.0
ss(I6
I8
tp4672
(dp4673
g1125
F6.0
sssg448
(dp4674
(I8
I21
tp4675
(dp4676
g1125
F9.0
sssg450
(dp4677
g3969
g2367
s(I2
I34
tp4678
(dp4679
g1125
F13.0
ss(I3
I32
tp4680
(dp4681
g1125
F9.0
sssg452
(dp4682
(I5
I8
tp4683
g3592
s(I9
I21
tp4684
(dp4685
g1125
F6.0
ss(I7
I15
tp4686
g1828
s(I6
I4
tp4687
(dp4688
g1125
F9.0
ss(I7
I1
tp4689
(dp4690
g1125
F15.0
ss(I9
I2
tp4691
(dp4692
g1125
F9.0
ssg2158
g2303
s(I9
I1
tp4693
(dp4694
g1125
F15.0
ss(I6
I6
tp4695
(dp4696
g1125
F23.0
ss(I8
I1
tp4697
(dp4698
g1125
F15.0
ss(I10
I2
tp4699
(dp4700
g1125
F11.0
sssg454
(dp4701
(I7
I25
tp4702
g1169
s(I2
I22
tp4703
(dp4704
g1125
F10.0
ssg1126
g3612
s(I8
I24
tp4705
(dp4706
g1125
F13.0
ssg1128
g3676
sg1131
g3788
s(I8
I21
tp4707
(dp4708
g1125
F7.0
ss(I1
I21
tp4709
g1679
sg2406
g4240
s(I8
I25
tp4710
g1921
s(I5
I17
tp4711
(dp4712
g1125
F6.0
ssg2538
g2169
sg4546
g4431
sg2158
g2305
s(I4
I24
tp4713
g2653
s(I1
I23
tp4714
(dp4715
g1125
F6.0
ss(I1
I18
tp4716
g2848
s(I8
I23
tp4717
(dp4718
g1125
F14.0
ss(I6
I24
tp4719
(dp4720
g1125
F8.0
ss(I7
I23
tp4721
(dp4722
g1125
F7.0
ss(I1
I22
tp4723
(dp4724
g1125
F12.0
sssg456
(dp4725
(I1
I40
tp4726
g1359
s(I7
I35
tp4727
(dp4728
g1125
F7.0
ss(I1
I37
tp4729
g4679
s(I1
I38
tp4730
(dp4731
g1125
F8.0
ss(I2
I30
tp4732
g2599
s(I1
I36
tp4733
(dp4734
g1125
F6.0
ss(I2
I31
tp4735
(dp4736
g1125
F7.0
ss(I3
I30
tp4737
(dp4738
g1125
F6.0
ssg1142
g3975
ssg458
(dp4739
sg460
(dp4740
g1287
g3551
sg1128
g3678
s(I9
I21
tp4741
(dp4742
g1125
F16.0
ssg1131
g3790
s(I7
I19
tp4743
(dp4744
g1125
F7.0
ss(I8
I21
tp4745
(dp4746
g1125
F31.0
ssg1878
g1426
s(I5
I21
tp4747
(dp4748
g1125
F8.0
ssg2268
g1492
sg1144
g2494
s(I4
I21
tp4749
(dp4750
g1125
F7.0
ssg1389
g4042
sg1810
g4149
s(I9
I25
tp4751
(dp4752
g1125
F6.0
ssg1479
(dp4753
g1125
F6.0
ssg2005
g1925
s(I6
I4
tp4754
(dp4755
g1125
F6.0
ssg2538
g2171
sg1713
g4320
sg4546
g4435
sg2158
g2307
sg1487
g4558
sg1489
g2424
s(I7
I17
tp4756
(dp4757
g1125
F7.0
ss(I4
I25
tp4758
(dp4759
g1125
F7.0
ss(I1
I30
tp4760
(dp4761
g1125
F6.0
ss(I7
I20
tp4762
(dp4763
g1125
F6.0
ss(I9
I24
tp4764
(dp4765
g1125
F7.0
ssg3396
g2769
sg1177
(dp4766
g1125
F8.0
ssg1497
(dp4767
g1125
F7.0
ss(I5
I16
tp4768
(dp4769
g1125
F7.0
ss(I1
I18
tp4770
g2850
sg1240
(dp4771
g1125
F15.0
ss(I9
I32
tp4772
(dp4773
g1125
F6.0
ss(I8
I23
tp4774
(dp4775
g1125
F10.0
ss(I9
I22
tp4776
(dp4777
g1125
F7.0
ss(I5
I19
tp4778
(dp4779
g1125
F7.0
ss(I6
I22
tp4780
(dp4781
g1125
F6.0
ss(I5
I22
tp4782
(dp4783
g1125
F8.0
ssg1212
g3317
ssg462
(dp4784
sg464
(dp4785
sg466
(dp4786
sg468
(dp4787
(I11
I31
tp4788
(dp4789
g1125
F6.0
ss(I9
I33
tp4790
(dp4791
g1125
F15.0
ss(I9
I24
tp4792
(dp4793
g1125
F6.0
ssg3361
(dp4794
g1125
F7.0
ss(I10
I22
tp4795
g3188
ssg470
(dp4796
sg472
(dp4797
g3488
g3444
sg1287
g3557
sg1597
g3086
s(I8
I24
tp4798
(dp4799
g1125
F13.0
ss(I9
I21
tp4800
(dp4801
g1125
F6.0
ss(I9
I27
tp4802
(dp4803
g1125
F8.0
ss(I10
I23
tp4804
(dp4805
g1125
F6.0
ss(I7
I22
tp4806
g1494
s(I8
I31
tp4807
(dp4808
g1125
F6.0
ssg4404
g4091
s(I7
I21
tp4809
g4152
s(I8
I32
tp4810
(dp4811
g1125
F21.0
ss(I7
I24
tp4812
(dp4813
g1125
F20.0
ssg2005
g1931
sg2538
g2175
sg4546
g4441
sg1487
g4562
s(I8
I29
tp4814
(dp4815
g1125
F6.0
ssg1932
g2657
s(I9
I24
tp4816
(dp4817
g1125
F9.0
ssg3396
g2777
s(I8
I26
tp4818
(dp4819
g1125
F31.0
ss(I12
I30
tp4820
(dp4821
g1125
F11.0
ss(I8
I23
tp4822
(dp4823
g1125
F14.0
ss(I9
I22
tp4824
(dp4825
g1125
F8.0
ssg1959
(dp4826
g1125
F7.0
ss(I6
I22
tp4827
(dp4828
g1125
F6.0
ss(I7
I23
tp4829
(dp4830
g1125
F6.0
ss(I4
I25
tp4831
(dp4832
g1125
F8.0
ss(I8
I34
tp4833
(dp4834
g1125
F19.0
ssg3442
g3391
ssg474
(dp4835
g4507
g3481
sg3031
g3514
sg1361
g1173
sg1287
g3559
s(I9
I28
tp4836
(dp4837
g1125
F16.0
ssg1597
g3088
s(I9
I21
tp4838
(dp4839
g1125
F11.0
ssg1131
g3794
s(I11
I27
tp4840
(dp4841
g1125
F9.0
ss(I10
I27
tp4842
(dp4843
g1125
F21.0
ss(I9
I3
tp4844
g3887
s(I9
I16
tp4845
(dp4846
g1125
F9.0
ssg1878
g1430
sg3340
g3192
sg1477
(dp4847
g1125
F11.0
ss(I9
I30
tp4848
(dp4849
g1125
F24.0
ss(I10
I29
tp4850
(dp4851
g1125
F24.0
ssg1387
g1649
sg4404
g4093
s(I7
I21
tp4852
g4154
s(I12
I27
tp4853
(dp4854
g1125
F7.0
ssg1170
g4192
s(I3
I28
tp4855
(dp4856
g1125
F7.0
ss(I8
I28
tp4857
(dp4858
g1125
F7.0
ssg4127
(dp4859
g1125
F13.0
ssg1312
(dp4860
g1125
F13.0
ssg2005
g1935
s(I6
I4
tp4861
(dp4862
g1125
F6.0
ssg2639
(dp4863
g1125
F10.0
ssg2892
g2019
s(I5
I17
tp4864
(dp4865
g1125
F6.0
ssg1818
g4297
sg2155
g2090
s(I8
I34
tp4866
(dp4867
g1125
F14.0
ssg2538
g2179
sg1713
g4324
s(I9
I27
tp4868
(dp4869
g1125
F21.0
ssg4546
g4443
s(I9
I32
tp4870
(dp4871
g1125
F13.0
ssg2158
g2323
sg1487
g4564
s(I6
I20
tp4872
(dp4873
g1125
F6.0
ssg3438
(dp4874
g1125
F12.0
ssg1966
g4636
s(I2
I29
tp4875
(dp4876
g1125
F6.0
ssg3181
g2461
s(I10
I25
tp4877
(dp4878
g1125
F12.0
ss(I8
I19
tp4879
(dp4880
g1125
F7.0
ssg2849
g4765
s(I4
I33
tp4881
(dp4882
g1125
F6.0
ssg1926
g2574
sg3187
g4793
sg1493
g4817
s(I12
I35
tp4883
(dp4884
g1125
F6.0
ssg1932
g2659
s(I10
I31
tp4885
(dp4886
g1125
F15.0
ss(I11
I30
tp4887
(dp4888
g1125
F6.0
ssg3396
g2779
sg1144
g2498
sg1497
(dp4889
g1125
F12.0
ss(I8
I26
tp4890
(dp4891
g1125
F7.0
ss(I11
I29
tp4892
(dp4893
g1125
F23.0
ss(I12
I30
tp4894
(dp4895
g1125
F16.0
ss(I9
I22
tp4896
(dp4897
g1125
F16.0
ssg2854
g2904
s(I10
I21
tp4898
(dp4899
g1125
F10.0
ss(I6
I24
tp4900
(dp4901
g1125
F13.0
ss(I11
I24
tp4902
(dp4903
g1125
F13.0
ss(I1
I29
tp4904
(dp4905
g1125
F7.0
ss(I5
I25
tp4906
(dp4907
g1125
F7.0
ss(I9
I17
tp4908
g3133
s(I12
I25
tp4909
(dp4910
g1125
F6.0
ss(I8
I30
tp4911
(dp4912
g1125
F8.0
ss(I4
I25
tp4913
(dp4914
g1125
F6.0
ssg2687
(dp4915
g1125
F10.0
ss(I8
I17
tp4916
(dp4917
g1125
F11.0
ss(I10
I28
tp4918
(dp4919
g1125
F19.0
ssg1351
(dp4920
g1125
F6.0
ssg3213
g3360
sg3442
g3393
ssg476
(dp4921
g3488
g3446
s(I8
I24
tp4922
(dp4923
g1125
F6.0
ssg1475
g3919
sg1878
g1432
sg4404
g4095
sg1170
g4194
s(I10
I3
tp4924
g4224
s(I6
I4
tp4925
(dp4926
g1125
F7.0
ssg2538
g2181
s(I8
I22
tp4927
g4446
s(I10
I25
tp4928
(dp4929
g1125
F9.0
ssg3182
g2554
sg4153
g4886
sg3396
g2781
s(I8
I26
tp4930
(dp4931
g1125
F12.0
ss(I12
I30
tp4932
(dp4933
g1125
F6.0
ss(I9
I22
tp4934
(dp4935
g1125
F6.0
ss(I10
I27
tp4936
(dp4937
g1125
F9.0
ss(I7
I23
tp4938
(dp4939
g1125
F6.0
ss(I8
I34
tp4940
(dp4941
g1125
F15.0
ssg3442
g3395
s(I4
I30
tp4942
(dp4943
g1125
F6.0
sssg478
(dp4944
g3488
g3448
s(I8
I24
tp4945
(dp4946
g1125
F8.0
ss(I9
I21
tp4947
(dp4948
g1125
F6.0
ssg1475
g3921
s(I7
I22
tp4949
g1496
s(I8
I31
tp4950
(dp4951
g1125
F6.0
ss(I9
I30
tp4952
(dp4953
g1125
F9.0
ssg4546
g4450
sg1487
g4572
s(I11
I20
tp4954
(dp4955
g1125
F10.0
ssg3182
g2542
s(I9
I33
tp4956
(dp4957
g1125
F8.0
ssg4153
g4888
sg3396
g2783
s(I11
I33
tp4958
(dp4959
g1125
F6.0
ss(I8
I26
tp4960
(dp4961
g1125
F10.0
ss(I10
I33
tp4962
(dp4963
g1125
F7.0
ss(I10
I27
tp4964
(dp4965
g1125
F8.0
ss(I7
I23
tp4966
(dp4967
g1125
F7.0
ss(I8
I34
tp4968
(dp4969
g1125
F6.0
sssg480
(dp4970
sg482
(dp4971
(I8
I24
tp4972
(dp4973
g1125
F6.0
ss(I9
I25
tp4974
(dp4975
g1125
F6.0
ss(I8
I25
tp4976
g1941
sg2538
g2183
sg4153
g4910
s(I11
I29
tp4977
(dp4978
g1125
F7.0
ss(I8
I23
tp4979
(dp4980
g1125
F6.0
ss(I9
I22
tp4981
(dp4982
g1125
F8.0
sssg484
(dp4983
g1361
g1180
s(I9
I28
tp4984
(dp4985
g1125
F6.0
ss(I8
I24
tp4986
(dp4987
g1125
F12.0
ssg1128
g3684
s(I2
I32
tp4988
(dp4989
g1125
F9.0
ssg1878
g1436
s(I7
I22
tp4990
g1498
s(I7
I35
tp4991
(dp4992
g1125
F7.0
ss(I7
I21
tp4993
g4157
s(I3
I34
tp4994
(dp4995
g1125
F6.0
ss(I7
I24
tp4996
(dp4997
g1125
F10.0
ssg2005
g1943
sg4546
g4452
s(I1
I30
tp4998
(dp4999
g1125
F7.0
ss(I2
I29
tp5000
(dp5001
g1125
F10.0
ss(I5
I23
tp5002
g4767
sg1932
g2663
s(I9
I24
tp5003
g4889
s(I8
I26
tp5004
(dp5005
g1125
F6.0
ss(I8
I23
tp5006
(dp5007
g1125
F8.0
ss(I9
I22
tp5008
(dp5009
g1125
F9.0
ss(I6
I24
tp5010
(dp5011
g1125
F8.0
ss(I5
I22
tp5012
(dp5013
g1125
F9.0
ss(I7
I23
tp5014
(dp5015
g1125
F7.0
ss(I8
I30
tp5016
(dp5017
g1125
F7.0
ssg1142
g3979
s(I3
I29
tp5018
(dp5019
g1125
F6.0
ssg3442
g3398
ssg486
(dp5020
(I1
I14
tp5021
(dp5022
g1125
F6.0
sssg488
(dp5023
(I8
I30
tp5024
(dp5025
g1125
F7.0
sssg490
(dp5026
sg492
(dp5027
(I1
I17
tp5028
(dp5029
g1125
F6.0
ss(I7
I25
tp5030
g1184
s(I9
I21
tp5031
(dp5032
g1125
F8.0
ssg1131
g3807
sg4743
(dp5033
g1125
F7.0
ss(I8
I15
tp5034
(dp5035
g1125
F7.0
ss(I4
I10
tp5036
(dp5037
g1125
F6.0
ss(I8
I21
tp5038
(dp5039
g1125
F14.0
ss(I6
I13
tp5040
(dp5041
g1125
F6.0
ssg2277
g1725
sg2889
g1776
sg2379
g1836
s(I6
I4
tp5042
(dp5043
g1125
F8.0
ssg2892
g2025
sg4546
g4457
sg1489
g2430
sg2849
g4769
s(I4
I13
tp5044
(dp5045
g1125
F6.0
ss(I2
I13
tp5046
(dp5047
g1125
F8.0
ss(I8
I16
tp5048
(dp5049
g1125
F6.0
ss(I6
I15
tp5050
(dp5051
g1125
F7.0
ss(I7
I14
tp5052
(dp5053
g1125
F8.0
ss(I6
I8
tp5054
(dp5055
g1125
F9.0
ss(I6
I21
tp5056
g2911
s(I5
I19
tp5057
(dp5058
g1125
F8.0
ss(I8
I20
tp5059
g3095
s(I6
I22
tp5060
(dp5061
g1125
F7.0
ss(I8
I17
tp5062
(dp5063
g1125
F15.0
sssg494
(dp5064
(I7
I25
tp5065
g1186
s(I1
I28
tp5066
g1245
sg4729
g4681
s(I3
I34
tp5067
(dp5068
g1125
F6.0
ss(I2
I29
tp5069
(dp5070
g1125
F7.0
ss(I5
I22
tp5071
(dp5072
g1125
F6.0
sssg496
(dp5073
(I4
I30
tp5074
(dp5075
g1125
F7.0
sssg498
(dp5076
sg500
(dp5077
(I9
I30
tp5078
(dp5079
g1125
F8.0
ss(I4
I32
tp5080
g4065
sg4404
g4105
s(I8
I22
tp5081
g4465
s(I9
I33
tp5082
(dp5083
g1125
F24.0
ss(I9
I27
tp5084
(dp5085
g1125
F6.0
ss(I10
I33
tp5086
(dp5087
g1125
F7.0
ss(I8
I30
tp5088
(dp5089
g1125
F10.0
ss(I9
I31
tp5090
(dp5091
g1125
F7.0
ss(I8
I34
tp5092
(dp5093
g1125
F7.0
ssg3442
g3404
ssg502
(dp5094
g1287
g3567
s(I9
I21
tp5095
(dp5096
g1125
F23.0
ssg1705
(dp5097
g1125
F9.0
ss(I10
I23
tp5098
(dp5099
g1125
F10.0
ssg1387
g1655
sg1170
g4198
sg4127
(dp5100
g1125
F6.0
ssg2892
g2031
sg2711
g2069
s(I8
I3
tp5101
(dp5102
g1125
F6.0
ss(I5
I10
tp5103
g2238
sg1485
(dp5104
g1125
F9.0
ssg1966
g4644
sg1827
g4694
sg1922
(dp5105
g1125
F6.0
ssg3361
(dp5106
g1125
F9.0
ssg1240
(dp5107
g1125
F7.0
ss(I9
I22
tp5108
(dp5109
g1125
F7.0
ss(I6
I3
tp5110
(dp5111
g1125
F6.0
ss(I11
I18
tp5112
(dp5113
g1125
F9.0
ssg3340
g3201
sg1137
(dp5114
g1125
F6.0
sssg504
(dp5115
sg506
(dp5116
(I9
I21
tp5117
(dp5118
g1125
F6.0
ss(I8
I21
tp5119
(dp5120
g1125
F8.0
ss(I8
I25
tp5121
g1958
sg2538
g2195
s(I12
I35
tp5122
(dp5123
g1125
F8.0
ssg3181
g2457
sg1240
(dp5124
g1125
F14.0
sssg508
(dp5125
sg510
(dp5126
sg512
(dp5127
(I2
I32
tp5128
(dp5129
g1125
F6.0
ssg5080
g4069
s(I9
I24
tp5130
g4905
s(I1
I26
tp5131
(dp5132
g1125
F9.0
ss(I1
I36
tp5133
(dp5134
g1125
F6.0
sssg514
(dp5135
(I6
I4
tp5136
(dp5137
g1125
F7.0
ssg4732
g2601
s(I2
I21
tp5138
(dp5139
g1125
F6.0
sssg516
(dp5140
sg518
(dp5141
(I8
I24
tp5142
(dp5143
g1125
F11.0
ssg4546
g4478
s(I9
I24
tp5144
g4907
ssg520
(dp5145
sg522
(dp5146
sg524
(dp5147
(I7
I12
tp5148
(dp5149
g1125
F8.0
ssg1361
g1203
sg1597
g3111
sg1128
g3697
sg1131
g3833
s(I3
I23
tp5150
(dp5151
g1125
F6.0
ss(I8
I21
tp5152
(dp5153
g1125
F14.0
ssg1475
g3935
sg1477
(dp5154
g1125
F6.0
ssg1389
g4052
sg2892
g2041
sg1816
(dp5155
g1125
F6.0
ssg4546
g4484
sg2158
g2347
sg1487
g4600
sg3438
(dp5156
g1125
F6.0
ssg1421
(dp5157
g1125
F12.0
ss(I6
I17
tp5158
(dp5159
g1125
F9.0
ssg2849
g4781
s(I2
I13
tp5160
(dp5161
g1125
F6.0
ssg1493
g4828
sg1433
g2735
sg1183
g5061
s(I7
I13
tp5162
(dp5163
g1125
F6.0
ssg3361
(dp5164
g1125
F7.0
ss(I8
I23
tp5165
(dp5166
g1125
F7.0
ss(I4
I25
tp5167
(dp5168
g1125
F7.0
ssg1212
g3337
ssg526
(dp5169
g4404
g4108
s(I8
I32
tp5170
(dp5171
g1125
F12.0
ss(I2
I29
tp5172
(dp5173
g1125
F6.0
ssg3396
g2805
ssg528
(dp5174
sg530
(dp5175
sg532
(dp5176
g1312
(dp5177
g1125
F9.0
ssg1361
g1207
sg1503
(dp5178
g1125
F7.0
ssg1597
g3115
sg1128
g3701
sg1131
g3839
s(I7
I19
tp5179
(dp5180
g1125
F10.0
ssg1135
g1276
s(I8
I21
tp5181
(dp5182
g1125
F8.0
ssg1624
g1341
sg1475
g3937
s(I9
I27
tp5183
(dp5184
g1125
F10.0
ssg1387
g1667
sg4127
(dp5185
g1125
F11.0
ss(I7
I24
tp5186
(dp5187
g1125
F6.0
ssg1507
(dp5188
g1125
F10.0
ssg1713
g4330
sg4546
g4488
sg3438
(dp5189
g1125
F8.0
ssg1966
g4650
sg3181
g2465
s(I10
I25
tp5190
(dp5191
g1125
F9.0
ssg1168
g4722
sg1493
g4830
sg1932
g2684
sg4223
g4939
sg1495
g4967
sg2854
g2922
sg1497
g5015
s(I8
I26
tp5192
(dp5193
g1125
F7.0
ssg3104
g2956
s(I7
I29
tp5194
(dp5195
g1125
F6.0
ssg4109
g2991
sg2687
(dp5196
g1125
F7.0
ssg1212
g3342
sg1137
(dp5197
g1125
F15.0
ssg3442
g3410
ssg534
(dp5198
sg536
(dp5199
g1361
g1208
sg1287
g3577
s(I8
I24
tp5200
(dp5201
g1125
F11.0
ss(I9
I21
tp5202
(dp5203
g1125
F6.0
ss(I5
I24
tp5204
g1343
s(I8
I31
tp5205
(dp5206
g1125
F6.0
ssg4404
g4111
sg1170
g4204
s(I9
I25
tp5207
(dp5208
g1125
F7.0
ss(I10
I30
tp5209
(dp5210
g1125
F7.0
ssg1144
g2518
sg2849
g4773
sg4153
g4871
s(I8
I26
tp5211
(dp5212
g1125
F6.0
ss(I9
I27
tp5213
(dp5214
g1125
F10.0
ss(I9
I28
tp5215
(dp5216
g1125
F8.0
ss(I10
I27
tp5217
(dp5218
g1125
F10.0
ss(I5
I22
tp5219
(dp5220
g1125
F10.0
ss(I10
I28
tp5221
(dp5222
g1125
F6.0
ss(I8
I34
tp5223
(dp5224
g1125
F9.0
ssg3442
g3381
ssg538
(dp5225
(I9
I41
tp5226
(dp5227
g1125
F6.0
sssg540
(dp5228
sg542
(dp5229
sg544
(dp5230
sg546
(dp5231
(I8
I24
tp5232
(dp5233
g1125
F10.0
ss(I8
I15
tp5234
(dp5235
g1125
F6.0
ss(I8
I6
tp5236
(dp5237
g1125
F6.0
ss(I6
I4
tp5238
(dp5239
g1125
F12.0
ss(I6
I6
tp5240
(dp5241
g1125
F11.0
ssg1964
g3011
ssg548
(dp5242
sg550
(dp5243
(I8
I24
tp5244
(dp5245
g1125
F13.0
ssg1128
g3703
s(I9
I21
tp5246
(dp5247
g1125
F31.0
ssg1131
g3843
s(I10
I18
tp5248
(dp5249
g1125
F7.0
ss(I8
I21
tp5250
(dp5251
g1125
F28.0
ssg1475
g3939
sg1878
g1456
sg2268
g1510
sg3120
g3283
sg1387
g1669
sg1810
g4173
sg2379
g1844
sg2005
g1977
sg2892
g2043
s(I5
I17
tp5252
(dp5253
g1125
F47.0
ssg2711
g2077
sg2538
g2211
sg4546
g4493
sg2158
g2357
sg1487
g4608
s(I6
I20
tp5254
(dp5255
g1125
F6.0
ssg1489
g2442
s(I8
I19
tp5256
(dp5257
g1125
F13.0
ssg1926
g2584
s(I7
I20
tp5258
(dp5259
g1125
F6.0
ss(I8
I10
tp5260
(dp5261
g1125
F6.0
ssg4153
g4917
s(I6
I15
tp5262
(dp5263
g1125
F7.0
ss(I7
I14
tp5264
(dp5265
g1125
F6.0
ssg1433
g2737
sg3396
g2813
sg1183
g5063
s(I7
I13
tp5266
(dp5267
g1125
F7.0
ss(I6
I24
tp5268
(dp5269
g1125
F6.0
ss(I8
I23
tp5270
(dp5271
g1125
F18.0
ssg2258
(dp5272
g1125
F6.0
ss(I9
I22
tp5273
(dp5274
g1125
F13.0
ssg2854
g2926
s(I5
I19
tp5275
(dp5276
g1125
F10.0
ssg1597
g3119
s(I11
I18
tp5277
(dp5278
g1125
F21.0
ss(I2
I16
tp5279
g3222
sg1212
g3344
s(I11
I17
tp5280
(dp5281
g1125
F9.0
sssg552
(dp5282
(I11
I17
tp5283
(dp5284
g1125
F8.0
sssg554
(dp5285
sg556
(dp5286
sg558
(dp5287
g1168
g4724
sg1932
g2694
ssg560
(dp5288
sg562
(dp5289
g4546
g4503
sg1932
g2696
s(I2
I26
tp5290
g5139
ssg564
(dp5291
g3644
g3639
sg1128
g3707
s(I4
I10
tp5292
(dp5293
g1125
F6.0
ss(I8
I21
tp5294
(dp5295
g1125
F11.0
ss(I7
I5
tp5296
(dp5297
g1125
F7.0
ss(I4
I15
tp5298
(dp5299
g1125
F6.0
ss(I5
I14
tp5300
(dp5301
g1125
F7.0
ssg1389
g4058
sg2889
g1786
sg2379
g1846
sg2005
g1860
s(I6
I4
tp5302
(dp5303
g1125
F8.0
ssg3590
g4265
sg4417
g4367
sg2158
g2247
s(I7
I17
tp5304
(dp5305
g1125
F9.0
ss(I4
I13
tp5306
(dp5307
g1125
F10.0
ssg1932
g2650
s(I8
I16
tp5308
(dp5309
g1125
F10.0
ss(I7
I14
tp5310
(dp5311
g1125
F8.0
ss(I6
I6
tp5312
(dp5313
g1125
F10.0
ss(I5
I6
tp5314
g2867
s(I7
I7
tp5315
(dp5316
g1125
F7.0
ssg3104
g2958
sg1730
g3258
ssg566
(dp5317
sg568
(dp5318
sg570
(dp5319
sg572
(dp5320
(I4
I10
tp5321
(dp5322
g1125
F7.0
ss(I3
I12
tp5323
(dp5324
g1125
F6.0
ss(I6
I4
tp5325
(dp5326
g1125
F6.0
ss(I6
I11
tp5327
g4272
s(I5
I17
tp5328
(dp5329
g1125
F6.0
ssg4546
g4372
s(I6
I20
tp5330
(dp5331
g1125
F7.0
ss(I7
I17
tp5332
(dp5333
g1125
F7.0
ss(I8
I13
tp5334
(dp5335
g1125
F6.0
ss(I6
I15
tp5336
(dp5337
g1125
F7.0
ss(I7
I14
tp5338
(dp5339
g1125
F9.0
ssg3120
g3263
ssg574
(dp5340
sg576
(dp5341
sg578
(dp5342
sg580
(dp5343
(I9
I21
tp5344
(dp5345
g1125
F9.0
ss(I8
I21
tp5346
(dp5347
g1125
F6.0
ss(I6
I4
tp5348
(dp5349
g1125
F12.0
ssg1597
g3030
s(I6
I22
tp5350
g5149
ssg582
(dp5351
sg584
(dp5352
(I6
I40
tp5353
g5227
ssg586
(dp5354
sg588
(dp5355
sg590
(dp5356
sg592
(dp5357
sg594
(dp5358
sg596
(dp5359
sg598
(dp5360
g4507
g3465
sg3031
g3494
sg1287
g3526
s(I9
I28
tp5361
(dp5362
g1125
F9.0
ssg1597
g3034
sg1126
g3598
s(I8
I24
tp5363
(dp5364
g1125
F7.0
ssg1128
g3643
s(I9
I21
tp5365
(dp5366
g1125
F9.0
ssg1131
g3718
sg1135
g1249
sg1872
(dp5367
g1125
F15.0
ss(I8
I21
tp5368
(dp5369
g1125
F18.0
ssg1624
g1290
sg1981
(dp5370
g1125
F6.0
ssg1879
g3946
sg3340
g3151
s(I8
I31
tp5371
(dp5372
g1125
F13.0
ss(I4
I26
tp5373
g3996
sg1383
g1535
s(I10
I29
tp5374
(dp5375
g1125
F7.0
ssg1387
g1615
sg1389
g4017
sg4404
g4072
s(I8
I28
tp5376
(dp5377
g1125
F17.0
ssg2889
g1752
sg2379
g1796
s(I8
I32
tp5378
(dp5379
g1125
F10.0
ss(I9
I30
tp5380
(dp5381
g1125
F10.0
ssg2639
(dp5382
g1125
F7.0
ssg2892
g1988
sg5327
g4274
sg1818
g4282
sg2155
g2082
sg2538
g2115
sg1713
g4308
sg4546
g4376
sg2158
g2253
sg1487
g4510
s(I6
I20
tp5383
(dp5384
g1125
F7.0
ssg3438
(dp5385
g1125
F8.0
ssg1966
g4626
s(I2
I29
tp5386
(dp5387
g1125
F8.0
ss(I8
I13
tp5388
(dp5389
g1125
F6.0
ssg3181
g2447
sg1144
g2472
s(I8
I19
tp5390
(dp5391
g1125
F23.0
ssg1168
g4706
s(I9
I18
tp5392
(dp5393
g1125
F10.0
ssg1423
(dp5394
g1125
F6.0
ss(I7
I20
tp5395
(dp5396
g1125
F7.0
ss(I6
I24
tp5397
(dp5398
g1125
F10.0
ssg4438
(dp5399
g1125
F6.0
ssg1493
g4799
sg1932
g2613
s(I8
I16
tp5400
(dp5401
g1125
F18.0
ssg4223
g4923
sg1495
g4946
sg3396
g2743
sg1940
g4973
sg1497
g4987
s(I8
I26
tp5402
(dp5403
g1125
F11.0
ss(I8
I34
tp5404
(dp5405
g1125
F24.0
ssg1342
g5201
sg3980
(dp5406
g1125
F10.0
ssg3361
(dp5407
g1125
F8.0
ss(I12
I30
tp5408
(dp5409
g1125
F10.0
ss(I8
I23
tp5410
(dp5411
g1125
F10.0
ssg2258
(dp5412
g1125
F6.0
ss(I9
I22
tp5413
(dp5414
g1125
F9.0
ssg2856
(dp5415
g1125
F7.0
ssg1198
(dp5416
g1125
F11.0
ssg3107
g3016
sg4906
g5143
s(I10
I27
tp5417
(dp5418
g1125
F11.0
ssg4908
g3125
s(I5
I22
tp5419
(dp5420
g1125
F9.0
ssg1451
(dp5421
g1125
F10.0
ss(I9
I10
tp5422
g5233
s(I8
I30
tp5423
(dp5424
g1125
F25.0
ssg1507
(dp5425
g1125
F11.0
ss(I9
I31
tp5426
(dp5427
g1125
F7.0
ss(I8
I17
tp5428
g5245
s(I12
I33
tp5429
(dp5430
g1125
F6.0
ssg1212
g3289
s(I10
I28
tp5431
(dp5432
g1125
F8.0
ssg3442
g3373
ssg600
(dp5433
sg602
(dp5434
g3488
g3423
sg4507
g3467
sg5148
g5345
sg3031
g3496
sg1361
g1130
sg1287
g3528
sg1126
g3600
s(I8
I24
tp5435
g5366
sg1128
g3648
sg1131
g3720
sg3721
g1223
s(I10
I18
tp5436
(dp5437
g1125
F25.0
ss(I7
I19
tp5438
(dp5439
g1125
F6.0
ss(I11
I27
tp5440
(dp5441
g1125
F6.0
ss(I10
I27
tp5442
(dp5443
g1125
F13.0
ss(I8
I15
tp5444
(dp5445
g1125
F20.0
ss(I9
I14
tp5446
(dp5447
g1125
F9.0
ss(I3
I23
tp5448
(dp5449
g1125
F6.0
ssg1624
g1294
sg1475
g3890
s(I9
I16
tp5450
(dp5451
g1125
F24.0
ssg1878
g1368
s(I5
I21
tp5452
(dp5453
g1125
F7.0
ssg1879
g3948
s(I10
I23
tp5454
(dp5455
g1125
F11.0
ssg68
g1528
s(I9
I30
tp5456
(dp5457
g1125
F9.0
ssg1383
g1539
s(I10
I16
tp5458
(dp5459
g1125
F10.0
ss(I4
I21
tp5460
(dp5461
g1125
F7.0
ssg1387
g1617
sg1389
g4019
s(I11
I16
tp5462
(dp5463
g1125
F7.0
ssg1810
g4117
s(I11
I35
tp5464
(dp5465
g1125
F7.0
ss(I10
I3
tp5466
g4215
s(I9
I25
tp5467
(dp5468
g1125
F17.0
ssg2889
g1754
sg2379
g1800
s(I8
I32
tp5469
(dp5470
g1125
F6.0
ss(I7
I24
tp5471
(dp5472
g1125
F14.0
ssg2005
g1869
s(I6
I4
tp5473
(dp5474
g1125
F16.0
ssg3590
g4250
sg2892
g1992
s(I5
I17
tp5475
(dp5476
g1125
F10.0
ssg2711
g2049
sg1818
g4284
sg2155
g2084
sg2538
g2118
sg4417
g4341
s(I8
I3
tp5477
(dp5478
g1125
F6.0
ss(I3
I22
tp5479
g2241
s(I9
I2
tp5480
(dp5481
g1125
F8.0
ssg2158
g2257
s(I10
I25
tp5482
(dp5483
g1125
F14.0
ssg1487
g4512
sg3272
g2372
s(I6
I20
tp5484
(dp5485
g1125
F6.0
ssg1489
g2394
s(I11
I20
tp5486
(dp5487
g1125
F25.0
ss(I10
I20
tp5488
g4616
s(I7
I17
tp5489
(dp5490
g1125
F8.0
ssg1966
g4628
s(I8
I13
tp5491
(dp5492
g1125
F6.0
ss(I10
I15
tp5493
(dp5494
g1125
F6.0
ss(I8
I19
tp5495
(dp5496
g1125
F11.0
ssg1827
g4685
sg3182
g2529
s(I9
I18
tp5497
(dp5498
g1125
F16.0
ss(I6
I17
tp5499
(dp5500
g1125
F9.0
ssg2849
g4742
sg1926
g2557
sg1493
g4801
sg4153
g4839
s(I8
I16
tp5501
(dp5502
g1125
F28.0
ss(I7
I14
tp5503
(dp5504
g1125
F8.0
ssg1433
g2703
sg1495
g4948
sg1342
g5203
s(I9
I27
tp5505
(dp5506
g1125
F7.0
ssg1183
g5032
s(I1
I18
tp5507
g2836
s(I12
I30
tp5508
(dp5509
g1125
F8.0
ss(I9
I12
tp5510
(dp5511
g1125
F8.0
ss(I9
I1
tp5512
g5096
s(I8
I23
tp5513
(dp5514
g1125
F9.0
ss(I6
I6
tp5515
(dp5516
g1125
F9.0
ss(I4
I18
tp5517
(dp5518
g1125
F8.0
ssg2854
g2874
s(I5
I19
tp5519
(dp5520
g1125
F8.0
ssg1957
g5118
sg3104
g2933
s(I6
I24
tp5521
(dp5522
g1125
F22.0
ssg3107
g3018
s(I9
I28
tp5523
(dp5524
g1125
F9.0
ss(I6
I3
tp5525
(dp5526
g1125
F19.0
ssg4908
g3127
s(I11
I18
tp5527
(dp5528
g1125
F16.0
ssg3340
g3153
s(I3
I13
tp5529
g3226
s(I8
I30
tp5530
(dp5531
g1125
F8.0
ss(I9
I31
tp5532
(dp5533
g1125
F6.0
ssg5428
g5247
sg1212
g3291
s(I10
I28
tp5534
(dp5535
g1125
F9.0
ss(I6
I19
tp5536
(dp5537
g1125
F12.0
ss(I11
I17
tp5538
(dp5539
g1125
F12.0
sssg604
(dp5540
sg606
(dp5541
g2835
g5437
s(I5
I17
tp5542
(dp5543
g1125
F6.0
ss(I8
I22
tp5544
g4378
s(I10
I25
tp5545
(dp5546
g1125
F6.0
ss(I6
I20
tp5547
(dp5548
g1125
F6.0
ss(I10
I15
tp5549
(dp5550
g1125
F6.0
ss(I11
I14
tp5551
(dp5552
g1125
F6.0
ss(I9
I22
tp5553
(dp5554
g1125
F6.0
ssg1597
g3040
sg5428
g5249
ssg608
(dp5555
sg610
(dp5556
g2835
g5441
sg1874
g3870
sg1475
g3892
s(I8
I35
tp5557
g4073
s(I10
I3
tp5558
g4216
s(I7
I24
tp5559
(dp5560
g1125
F6.0
ss(I12
I29
tp5561
g2122
sg1487
g4513
sg4153
g4841
s(I8
I23
tp5562
(dp5563
g1125
F7.0
ss(I9
I22
tp5564
(dp5565
g1125
F7.0
ssg3340
g3157
s(I8
I30
tp5566
(dp5567
g1125
F8.0
sssg612
(dp5568
g1131
g3727
sg1705
(dp5569
g1125
F7.0
ssg1475
g3894
ssg614
(dp5570
(I6
I9
tp5571
g5322
s(I8
I24
tp5572
g5412
sg3644
g3630
s(I3
I12
tp5573
(dp5574
g1125
F11.0
ss(I7
I8
tp5575
(dp5576
g1125
F6.0
ssg2277
g1704
s(I8
I9
tp5577
g4211
sg2379
g1803
s(I6
I4
tp5578
(dp5579
g1125
F33.0
ssg3590
g4254
sg5327
g4276
sg4417
g4357
s(I8
I22
tp5580
g4383
s(I4
I17
tp5581
g2259
s(I5
I13
tp5582
g4666
s(I8
I10
tp5583
(dp5584
g1125
F11.0
ss(I4
I13
tp5585
(dp5586
g1125
F11.0
ss(I2
I13
tp5587
(dp5588
g1125
F9.0
ss(I8
I16
tp5589
(dp5590
g1125
F7.0
ss(I6
I8
tp5591
(dp5592
g1125
F10.0
ssg1183
g5037
s(I7
I13
tp5593
(dp5594
g1125
F7.0
ss(I8
I23
tp5595
(dp5596
g1125
F8.0
ss(I6
I6
tp5597
(dp5598
g1125
F14.0
ss(I7
I7
tp5599
(dp5600
g1125
F7.0
ss(I6
I3
tp5601
(dp5602
g1125
F12.0
ss(I4
I23
tp5603
(dp5604
g1125
F8.0
ss(I8
I17
tp5605
g5272
sg3120
g3269
s(I2
I15
tp5606
g5293
ssg616
(dp5607
(I6
I4
tp5608
(dp5609
g1125
F6.0
ss(I5
I9
tp5610
(dp5611
g1125
F6.0
sssg618
(dp5612
g1128
g3654
sg2835
g5449
sg1131
g3733
s(I8
I21
tp5613
(dp5614
g1125
F15.0
ss(I8
I22
tp5615
g4386
s(I6
I22
tp5616
g5151
sg1212
g3299
ssg620
(dp5617
(I8
I21
tp5618
(dp5619
g1125
F7.0
ssg2889
g1760
sg1597
g3046
ssg622
(dp5620
(I1
I36
tp5621
(dp5622
g1125
F6.0
ss(I1
I40
tp5623
g1352
sg1142
g3961
s(I3
I34
tp5624
(dp5625
g1125
F7.0
ss(I1
I38
tp5626
(dp5627
g1125
F8.0
ss(I1
I30
tp5628
(dp5629
g1125
F14.0
ss(I2
I29
tp5630
(dp5631
g1125
F19.0
ss(I9
I24
tp5632
g4920
sg1497
g4989
sg4904
g5129
s(I2
I38
tp5633
g1790
ssg624
(dp5634
g4397
g1523
sg2379
g1807
sg3590
g4256
s(I8
I10
tp5635
(dp5636
g1125
F8.0
ss(I6
I6
tp5637
(dp5638
g1125
F6.0
ss(I6
I3
tp5639
(dp5640
g1125
F6.0
ssg5606
g5297
ssg626
(dp5641
(I1
I17
tp5642
(dp5643
g1125
F6.0
ssg1361
g1141
sg1128
g3658
sg2835
g5453
sg1131
g3741
s(I7
I19
tp5644
(dp5645
g1125
F6.0
ssg1624
g1300
sg1878
g1380
sg1391
g1678
s(I7
I24
tp5646
(dp5647
g1125
F6.0
ssg2406
g4237
s(I6
I4
tp5648
(dp5649
g1125
F7.0
ss(I5
I17
tp5650
(dp5651
g1125
F6.0
ssg4546
g4392
sg2158
g2265
sg1487
g4522
sg2849
g4748
s(I7
I20
tp5652
(dp5653
g1125
F6.0
ss(I1
I18
tp5654
g2841
s(I9
I12
tp5655
(dp5656
g1125
F6.0
ss(I8
I23
tp5657
(dp5658
g1125
F11.0
ss(I5
I19
tp5659
(dp5660
g1125
F8.0
sssg628
(dp5661
sg630
(dp5662
sg632
(dp5663
g2538
g2136
s(I2
I29
tp5664
(dp5665
g1125
F6.0
ssg1358
g4728
sg3396
g2745
sg1497
g4992
s(I4
I25
tp5666
(dp5667
g1125
F7.0
sssg634
(dp5668
sg636
(dp5669
g1361
g1146
sg5435
g5372
sg1624
g1304
s(I7
I22
tp5670
g1478
sg1144
g2478
sg4404
g4077
s(I8
I28
tp5671
(dp5672
g1125
F6.0
ss(I7
I24
tp5673
(dp5674
g1125
F8.0
ssg2005
g1884
sg4546
g4399
sg1342
g5206
sg2158
g2272
s(I2
I29
tp5675
(dp5676
g1125
F6.0
ss(I10
I35
tp5677
(dp5678
g1125
F6.0
ss(I9
I33
tp5679
(dp5680
g1125
F15.0
ssg1493
g4808
s(I9
I24
tp5681
g4847
sg1495
g4951
sg3396
g2747
s(I8
I26
tp5682
(dp5683
g1125
F26.0
ss(I9
I27
tp5684
(dp5685
g1125
F6.0
ss(I11
I29
tp5686
(dp5687
g1125
F7.0
ss(I8
I23
tp5688
(dp5689
g1125
F10.0
ss(I9
I22
tp5690
(dp5691
g1125
F15.0
ssg4109
g2967
s(I9
I25
tp5692
(dp5693
g1125
F12.0
ss(I6
I22
tp5694
g5154
s(I8
I30
tp5695
(dp5696
g1125
F7.0
ss(I8
I34
tp5697
(dp5698
g1125
F24.0
ssg3442
g3377
ssg638
(dp5699
g3488
g3425
sg1287
g3535
sg5435
g5381
sg2835
g5457
s(I9
I27
tp5700
(dp5701
g1125
F7.0
ssg4404
g4085
s(I7
I21
tp5702
g4125
sg1170
g4184
s(I4
I31
tp5703
(dp5704
g1125
F6.0
ss(I9
I25
tp5705
(dp5706
g1125
F7.0
ss(I8
I32
tp5707
(dp5708
g1125
F7.0
ss(I7
I24
tp5709
(dp5710
g1125
F9.0
ssg2005
g1888
sg2538
g2138
sg1713
g4314
s(I8
I22
tp5711
g4400
sg1487
g4527
sg3182
g2533
s(I9
I33
tp5712
(dp5713
g1125
F13.0
ssg4153
g4849
sg1495
g4953
s(I10
I35
tp5714
(dp5715
g1125
F10.0
ss(I12
I30
tp5716
(dp5717
g1125
F14.0
ss(I10
I33
tp5718
(dp5719
g1125
F10.0
ssg4464
g5079
s(I8
I23
tp5720
(dp5721
g1125
F10.0
ss(I9
I22
tp5722
(dp5723
g1125
F12.0
ssg4109
g2977
s(I10
I27
tp5724
(dp5725
g1125
F6.0
ssg3396
g2749
sg5431
(dp5726
g1125
F7.0
ss(I8
I34
tp5727
(dp5728
g1125
F10.0
sssg640
(dp5729
g3488
g3427
sg1361
g1149
sg5435
g5375
s(I7
I21
tp5730
g4126
s(I9
I25
tp5731
(dp5732
g1125
F10.0
ss(I8
I32
tp5733
(dp5734
g1125
F7.0
ssg2538
g2140
sg1713
g4316
s(I9
I23
tp5735
g4543
sg3182
g2535
sg4153
g4851
s(I8
I26
tp5736
(dp5737
g1125
F10.0
ss(I6
I8
tp5738
(dp5739
g1125
F6.0
ss(I10
I35
tp5740
(dp5741
g1125
F10.0
ss(I8
I23
tp5742
(dp5743
g1125
F8.0
ss(I9
I22
tp5744
(dp5745
g1125
F8.0
ss(I10
I22
tp5746
g3163
s(I8
I34
tp5747
(dp5748
g1125
F7.0
ss(I10
I24
tp5749
g3900
ssg642
(dp5750
g2835
g5463
ssg644
(dp5751
sg646
(dp5752
g1475
g3904
sg2538
g2144
sg4153
g4854
sg3396
g2753
s(I11
I17
tp5753
(dp5754
g1125
F8.0
sssg648
(dp5755
g1142
g3977
sg4904
g5132
ssg650
(dp5756
g1361
g1151
sg1878
g1396
sg1389
g4027
sg4153
g4856
ssg652
(dp5757
g1471
g3853
sg1135
g1254
sg1142
g3964
sg5373
g4000
sg4124
g5704
s(I8
I34
tp5758
(dp5759
g1125
F11.0
ss(I10
I33
tp5760
(dp5761
g1125
F6.0
ssg4109
g2971
s(I5
I22
tp5762
(dp5763
g1125
F9.0
sssg654
(dp5764
(I6
I7
tp5765
g3634
s(I8
I1
tp5766
(dp5767
g1125
F6.0
sssg656
(dp5768
sg658
(dp5769
g1135
g1255
sg1351
g5625
s(I2
I37
tp5770
(dp5771
g1125
F7.0
ss(I3
I31
tp5772
g2604
s(I2
I39
tp5773
(dp5774
g1125
F6.0
ssg1497
g4995
sg1185
g5068
ssg660
(dp5775
sg662
(dp5776
g3031
g3506
sg1361
g1157
sg1287
g3539
sg5435
g5379
sg2835
g5470
sg1135
g1257
s(I8
I21
tp5777
(dp5778
g1125
F6.0
ss(I5
I24
tp5779
g1313
sg1142
g3966
s(I1
I38
tp5780
(dp5781
g1125
F6.0
ssg1383
g1558
sg3162
g5734
sg5080
g4061
sg4404
g4083
sg1170
g4182
s(I8
I28
tp5782
(dp5783
g1125
F12.0
ss(I9
I25
tp5784
(dp5785
g1125
F14.0
ss(I10
I30
tp5786
(dp5787
g1125
F9.0
ssg1479
(dp5788
g1125
F8.0
ss(I7
I24
tp5789
(dp5790
g1125
F14.0
ssg4124
g5708
sg2005
g1897
sg4546
g4412
sg1487
g4536
s(I10
I25
tp5791
(dp5792
g1125
F7.0
ss(I8
I19
tp5793
(dp5794
g1125
F6.0
ss(I8
I36
tp5795
(dp5796
g1125
F9.0
ssg1493
g4811
sg1932
g2633
s(I9
I24
tp5797
g4860
sg1144
g2486
s(I7
I36
tp5798
(dp5799
g1125
F6.0
ss(I8
I26
tp5800
(dp5801
g1125
F25.0
ss(I9
I27
tp5802
(dp5803
g1125
F7.0
ss(I12
I30
tp5804
(dp5805
g1125
F11.0
ss(I8
I23
tp5806
(dp5807
g1125
F10.0
ss(I9
I28
tp5808
(dp5809
g1125
F10.0
ssg1473
(dp5810
g1125
F7.0
ss(I4
I34
tp5811
g5171
s(I7
I23
tp5812
g5177
s(I8
I30
tp5813
(dp5814
g1125
F14.0
ss(I8
I34
tp5815
(dp5816
g1125
F14.0
ssg3442
g3385
ssg664
(dp5817
g1126
g3606
sg1128
g3667
sg2835
g5472
sg1131
g3760
s(I7
I19
tp5818
(dp5819
g1125
F6.0
ssg2121
g5560
sg1135
g1259
s(I8
I21
tp5820
(dp5821
g1125
F20.0
ssg2840
g5647
sg3340
g3170
sg1142
g3968
sg1477
g5674
sg5373
g4004
sg2842
(dp5822
g1125
F6.0
ssg1389
g4029
sg1810
g4131
s(I7
I15
tp5823
g1813
sg1312
g5790
sg4124
g5710
s(I3
I27
tp5824
(dp5825
g1125
F9.0
ss(I6
I4
tp5826
(dp5827
g1125
F10.0
ssg2538
g2152
sg4546
g4414
sg2158
g2285
sg1487
g4538
sg1966
g4633
sg1144
g2488
sg5772
g2606
sg1493
g4813
sg1932
g2635
s(I8
I16
tp5828
(dp5829
g1125
F6.0
ssg3396
g2761
sg1177
(dp5830
g1125
F7.0
ssg1497
g4997
s(I8
I26
tp5831
(dp5832
g1125
F7.0
ss(I8
I34
tp5833
(dp5834
g1125
F8.0
ssg3980
(dp5835
g1125
F6.0
ssg3361
(dp5836
g1125
F6.0
ssg1240
(dp5837
g1125
F8.0
ss(I3
I25
tp5838
(dp5839
g1125
F6.0
ss(I8
I23
tp5840
(dp5841
g1125
F10.0
ss(I9
I22
tp5842
(dp5843
g1125
F11.0
ssg2854
g2891
s(I6
I24
tp5844
(dp5845
g1125
F6.0
ssg5194
(dp5846
g1125
F8.0
ss(I7
I23
tp5847
g5187
s(I8
I30
tp5848
(dp5849
g1125
F11.0
ss(I4
I25
tp5850
(dp5851
g1125
F9.0
ssg1212
g3306
sg5431
(dp5852
g1125
F7.0
ss(I6
I19
tp5853
(dp5854
g1125
F7.0
ss(I3
I29
tp5855
(dp5856
g1125
F6.0
sssg666
(dp5857
g1131
g3762
sg1705
(dp5858
g1125
F8.0
ss(I5
I17
tp5859
(dp5860
g1125
F6.0
ssg2158
g2289
sg3272
g2381
s(I5
I3
tp5861
(dp5862
g1125
F11.0
ssg5422
g5237
ssg668
(dp5863
sg670
(dp5864
(I9
I2
tp5865
(dp5866
g1125
F17.0
ssg1240
(dp5867
g1125
F6.0
ss(I10
I21
tp5868
(dp5869
g1125
F9.0
sssg672
(dp5870
sg674
(dp5871
sg676
(dp5872
(I11
I22
tp5873
g1227
ssg678
(dp5874
(I8
I21
tp5875
(dp5876
g1125
F8.0
ssg2158
g2293
sg1489
g2414
s(I6
I24
tp5877
(dp5878
g1125
F7.0
ss(I5
I22
tp5879
(dp5880
g1125
F7.0
sssg680
(dp5881
g1135
g1261
s(I2
I38
tp5882
g1792
s(I2
I29
tp5883
(dp5884
g1125
F6.0
ssg1142
g3971
ssg682
(dp5885
sg684
(dp5886
sg686
(dp5887
sg688
(dp5888
g5571
g5331
sg4507
g3477
sg5435
g5384
sg2835
g5485
sg1131
g3772
sg4377
g5548
s(I8
I21
tp5889
(dp5890
g1125
F10.0
ssg1475
g3911
s(I10
I23
tp5891
(dp5892
g1125
F10.0
ssg1383
g1572
sg2998
g1607
sg1387
g1643
sg1389
g4038
sg1810
g4141
sg2889
g1770
s(I8
I25
tp5893
g1913
s(I6
I4
tp5894
(dp5895
g1125
F8.0
ssg2892
g2013
sg2711
g2057
sg2158
g2300
sg1485
(dp5896
g1125
F6.0
ssg1487
g4550
sg1421
(dp5897
g1125
F7.0
ssg1922
(dp5898
g1125
F8.0
ss(I6
I17
tp5899
(dp5900
g1125
F11.0
ssg1932
g2646
sg4153
g4873
s(I6
I15
tp5901
(dp5902
g1125
F8.0
ssg5162
(dp5903
g1125
F6.0
ss(I10
I21
tp5904
(dp5905
g1125
F6.0
ss(I6
I24
tp5906
(dp5907
g1125
F9.0
ssg1597
g3074
sg5428
g5255
sg3120
g3274
sg1212
g3313
ssg690
(dp5908
sg692
(dp5909
sg694
(dp5910
sg696
(dp5911
g5571
g5333
sg2835
g5490
sg1131
g3778
s(I8
I21
tp5912
(dp5913
g1125
F7.0
ss(I6
I23
tp5914
g1420
sg1387
g1645
sg1810
g4143
sg2892
g2015
s(I5
I17
tp5915
(dp5916
g1125
F10.0
ssg4546
g4423
sg3272
g2383
sg1489
g2420
s(I9
I18
tp5917
(dp5918
g1125
F7.0
ssg2849
g4757
s(I7
I14
tp5919
(dp5920
g1125
F9.0
ss(I5
I9
tp5921
(dp5922
g1125
F6.0
ss(I8
I23
tp5923
(dp5924
g1125
F6.0
ss(I10
I21
tp5925
(dp5926
g1125
F6.0
ssg1597
g3076
s(I3
I13
tp5927
g3230
sg5606
g5305
ssg698
(dp5928
sg700
(dp5929
sg702
(dp5930
sg704
(dp5931
g5571
g5335
s(I8
I24
tp5932
g5389
sg2835
g5492
ssg706
(dp5933
sg708
(dp5934
sg710
(dp5935
g2835
g5494
sg1131
g3784
sg4377
g5550
sg1383
g1574
s(I7
I8
tp5936
(dp5937
g1125
F6.0
ssg2711
g2059
s(I8
I22
tp5938
g4427
sg5488
g4620
s(I8
I19
tp5939
(dp5940
g1125
F7.0
ssg1926
g2570
s(I8
I23
tp5941
(dp5942
g1125
F9.0
ss(I10
I21
tp5943
(dp5944
g1125
F6.0
ssg1597
g3079
s(I6
I3
tp5945
(dp5946
g1125
F10.0
sssg712
(dp5947
g4507
g3479
sg5435
g5391
sg1128
g3674
sg2835
g5496
sg1131
g3786
s(I8
I15
tp5948
(dp5949
g1125
F17.0
ss(I8
I21
tp5950
(dp5951
g1125
F17.0
ss(I6
I23
tp5952
g1422
sg1389
g4040
sg1810
g4145
s(I7
I15
tp5953
g1826
sg1312
g5794
sg2005
g1920
sg4417
g4351
sg4546
g4429
sg1487
g4556
s(I6
I20
tp5954
g5897
sg1489
g2422
sg4426
g5940
s(I6
I17
tp5955
(dp5956
g1125
F8.0
ssg1926
g2572
sg1932
g2652
sg4153
g4880
s(I8
I16
tp5957
(dp5958
g1125
F24.0
ss(I6
I15
tp5959
(dp5960
g1125
F8.0
ss(I8
I26
tp5961
(dp5962
g1125
F8.0
ss(I7
I13
tp5963
(dp5964
g1125
F6.0
ss(I8
I23
tp5965
(dp5966
g1125
F27.0
ss(I9
I22
tp5967
(dp5968
g1125
F6.0
ssg2854
g2900
s(I5
I19
tp5969
(dp5970
g1125
F9.0
ss(I10
I21
tp5971
(dp5972
g1125
F7.0
ss(I11
I24
tp5973
(dp5974
g1125
F7.0
ssg1964
g3007
s(I9
I28
tp5975
(dp5976
g1125
F8.0
ssg1597
g3081
s(I6
I22
tp5977
g5157
s(I5
I22
tp5978
(dp5979
g1125
F8.0
ss(I11
I18
tp5980
(dp5981
g1125
F8.0
ssg1728
g3236
sg5428
g5257
s(I6
I19
tp5982
(dp5983
g1125
F7.0
sssg714
(dp5984
g4377
g5552
ssg716
(dp5985
g5435
g5393
sg2835
g5498
s(I8
I15
tp5986
(dp5987
g1125
F11.0
ss(I8
I21
tp5988
(dp5989
g1125
F7.0
ss(I9
I25
tp5990
(dp5991
g1125
F8.0
ss(I8
I25
tp5992
g1923
s(I5
I17
tp5993
(dp5994
g1125
F6.0
ss(I8
I22
tp5995
g4432
s(I6
I20
tp5996
g5898
sg1419
g5918
s(I8
I16
tp5997
(dp5998
g1125
F10.0
ss(I7
I14
tp5999
(dp6000
g1125
F6.0
ss(I9
I1
tp6001
g5105
s(I8
I23
tp6002
(dp6003
g1125
F8.0
ss(I6
I6
tp6004
(dp6005
g1125
F6.0
ss(I9
I22
tp6006
(dp6007
g1125
F8.0
ss(I10
I21
tp6008
(dp6009
g1125
F6.0
ssg1597
g3083
sg3340
g3184
ssg718
(dp6010
sg720
(dp6011
g2158
g2309
sg1212
g3319
ssg722
(dp6012
sg724
(dp6013
(I2
I23
tp6014
g4242
sg2158
g2313
ssg726
(dp6015
sg728
(dp6016
sg730
(dp6017
g1707
(dp6018
g1125
F6.0
ss(I6
I4
tp6019
(dp6020
g1125
F6.0
ss(I5
I17
tp6021
(dp6022
g1125
F9.0
ssg2158
g2315
s(I6
I5
tp6023
g5022
s(I6
I6
tp6024
(dp6025
g1125
F6.0
ssg3104
g2946
sg2923
g3242
ssg732
(dp6026
(I8
I15
tp6027
(dp6028
g1125
F6.0
ssg2258
g5586
sg1383
g1580
sg1389
g4044
sg1810
g4151
s(I1
I15
tp6029
g1719
sg2379
g1832
s(I1
I16
tp6030
g4231
sg1902
g2231
sg4417
g4353
sg2158
g2317
s(I6
I15
tp6031
(dp6032
g1125
F10.0
ss(I2
I14
tp6033
(dp6034
g1125
F8.0
ssg1183
g5045
s(I6
I6
tp6035
(dp6036
g1125
F6.0
ss(I4
I18
tp6037
(dp6038
g1125
F7.0
ssg3104
g2948
sg2923
g3244
sg5606
g5307
ssg734
(dp6039
(I8
I15
tp6040
(dp6041
g1125
F8.0
ssg2258
g5588
s(I8
I21
tp6042
(dp6043
g1125
F8.0
ss(I5
I14
tp6044
(dp6045
g1125
F7.0
ss(I6
I4
tp6046
(dp6047
g1125
F7.0
ssg4546
g4437
sg2158
g2319
sg1356
(dp6048
g1125
F7.0
ss(I8
I16
tp6049
(dp6050
g1125
F6.0
ssg1183
g5047
s(I6
I22
tp6051
g5161
ssg736
(dp6052
(I6
I13
tp6053
(dp6054
g1125
F6.0
sssg738
(dp6055
g1142
g3993
ssg740
(dp6056
g5571
g5337
sg1597
g3092
s(I6
I10
tp6057
(dp6058
g1125
F7.0
ssg1131
g3798
sg1705
(dp6059
g1125
F8.0
ssg2277
g1723
s(I5
I17
tp6060
(dp6061
g1125
F9.0
ssg1487
g4568
sg1912
g5902
sg1421
g5960
sg1718
g6032
s(I8
I16
tp6062
(dp6063
g1125
F7.0
ssg1183
g5051
s(I10
I16
tp6064
(dp6065
g1125
F7.0
ss(I8
I23
tp6066
(dp6067
g1125
F12.0
ssg2854
g2908
s(I6
I24
tp6068
(dp6069
g1125
F6.0
ss(I5
I22
tp6070
(dp6071
g1125
F6.0
ssg5279
g3218
sg5428
g5263
sg3120
g3280
s(I6
I19
tp6072
(dp6073
g1125
F8.0
ss(I11
I17
tp6074
(dp6075
g1125
F7.0
sssg742
(dp6076
sg744
(dp6077
(I2
I29
tp6078
(dp6079
g1125
F8.0
ssg1126
g3614
s(I3
I34
tp6080
g5774
s(I1
I35
tp6081
(dp6082
g1125
F6.0
sssg746
(dp6083
g5571
g5339
sg2835
g5504
sg1131
g3800
s(I8
I21
tp6084
(dp6085
g1125
F8.0
ss(I6
I4
tp6086
(dp6087
g1125
F7.0
ssg2892
g2023
s(I5
I17
tp6088
(dp6089
g1125
F10.0
ss(I8
I22
tp6090
g4448
sg1487
g4570
sg1419
g5920
sg1771
g4659
sg1922
g6000
s(I7
I20
tp6091
(dp6092
g1125
F7.0
ssg1183
g5053
s(I9
I12
tp6093
(dp6094
g1125
F8.0
ss(I8
I23
tp6095
(dp6096
g1125
F8.0
ss(I6
I6
tp6097
(dp6098
g1125
F8.0
ssg5599
(dp6099
g1125
F6.0
ssg3340
g3194
sg5428
g5265
s(I6
I19
tp6100
(dp6101
g1125
F6.0
ssg5606
g5311
ssg748
(dp6102
sg750
(dp6103
sg752
(dp6104
g1312
g5799
ssg754
(dp6105
(I10
I30
tp6106
(dp6107
g1125
F7.0
ss(I8
I36
tp6108
(dp6109
g1125
F7.0
ss(I9
I33
tp6110
(dp6111
g1125
F13.0
ssg1495
g4959
sg3396
g2785
sg3361
(dp6112
g1125
F7.0
ss(I8
I23
tp6113
(dp6114
g1125
F8.0
ss(I8
I34
tp6115
(dp6116
g1125
F8.0
sssg756
(dp6117
sg758
(dp6118
g1287
g3561
s(I9
I28
tp6119
(dp6120
g1125
F10.0
ssg1597
g3094
sg5435
g5403
sg1131
g3805
s(I10
I27
tp6121
(dp6122
g1125
F9.0
ss(I8
I21
tp6123
(dp6124
g1125
F8.0
ssg2268
g1500
sg3340
g3196
sg1477
g5683
sg1383
g1584
sg3162
g5737
sg4404
g4097
sg1170
g4196
s(I8
I28
tp6125
(dp6126
g1125
F19.0
ss(I10
I30
tp6127
(dp6128
g1125
F8.0
ssg1312
g5801
sg1812
g5832
sg2155
g2092
s(I8
I34
tp6129
(dp6130
g1125
F32.0
ss(I7
I31
tp6131
(dp6132
g1125
F8.0
ssg2538
g2185
sg1713
g4326
sg4546
g4455
sg1485
(dp6133
g1125
F6.0
ssg1487
g4574
sg1966
g4638
s(I4
I27
tp6134
(dp6135
g1125
F6.0
ssg1421
g5962
s(I8
I36
tp6136
(dp6137
g1125
F7.0
ssg1493
g4819
sg1932
g2665
sg4153
g4891
sg4223
g4931
sg1495
g4961
sg3396
g2787
sg1497
g5005
s(I10
I35
tp6138
(dp6139
g1125
F7.0
ss(I11
I29
tp6140
(dp6141
g1125
F21.0
ss(I12
I30
tp6142
(dp6143
g1125
F18.0
ssg3401
(dp6144
g1125
F6.0
ss(I9
I35
tp6145
(dp6146
g1125
F8.0
ssg1342
g5212
s(I8
I23
tp6147
(dp6148
g1125
F34.0
ss(I9
I22
tp6149
(dp6150
g1125
F7.0
ssg2854
g2910
s(I5
I19
tp6151
(dp6152
g1125
F8.0
ssg1198
(dp6153
g1125
F14.0
ss(I7
I29
tp6154
(dp6155
g1125
F12.0
ss(I9
I25
tp6156
(dp6157
g1125
F7.0
ssg4109
g2983
s(I7
I23
tp6158
g5193
s(I8
I30
tp6159
(dp6160
g1125
F44.0
ss(I4
I25
tp6161
(dp6162
g1125
F14.0
ssg2687
(dp6163
g1125
F7.0
ss(I10
I28
tp6164
(dp6165
g1125
F6.0
ssg1479
(dp6166
g1125
F7.0
sssg760
(dp6167
sg762
(dp6168
g3031
g3490
sg1287
g3563
s(I8
I24
tp6169
g5406
sg2835
g5506
s(I2
I28
tp6170
g3981
sg1477
g5685
sg4124
g5701
s(I11
I31
tp6171
(dp6172
g1125
F7.0
ssg1312
g5803
s(I7
I24
tp6173
g5835
sg2005
g1947
sg2538
g2187
sg4546
g4374
sg1487
g4576
s(I9
I25
tp6174
(dp6175
g1125
F8.0
ssg1144
g2476
s(I9
I33
tp6176
(dp6177
g1125
F7.0
ssg1493
g4803
sg1932
g2609
sg4153
g4869
sg1342
g5214
s(I11
I29
tp6178
(dp6179
g1125
F14.0
ss(I12
I30
tp6180
(dp6181
g1125
F19.0
ssg4464
g5085
s(I8
I23
tp6182
(dp6183
g1125
F15.0
ss(I9
I22
tp6184
(dp6185
g1125
F12.0
ss(I6
I24
tp6186
(dp6187
g1125
F10.0
ssg5847
g5184
s(I8
I30
tp6188
(dp6189
g1125
F14.0
ss(I4
I25
tp6190
(dp6191
g1125
F8.0
ss(I8
I34
tp6192
(dp6193
g1125
F6.0
sssg764
(dp6194
g2835
g5459
sg1131
g3809
sg1387
g1653
s(I10
I3
tp6195
g4226
sg2892
g2027
s(I5
I17
tp6196
(dp6197
g1125
F9.0
ssg2711
g2067
sg1818
g4299
sg5488
g4622
sg1926
g2578
s(I6
I15
tp6198
g6065
s(I10
I16
tp6199
(dp6200
g1125
F6.0
ss(I9
I22
tp6201
(dp6202
g1125
F6.0
ss(I5
I19
tp6203
(dp6204
g1125
F7.0
ssg1597
g3053
sg2923
g3246
ssg766
(dp6205
sg768
(dp6206
g3488
g3450
sg1361
g1188
s(I8
I24
tp6207
g5407
sg1131
g3813
sg1624
g1330
sg1475
g3923
sg3980
g6179
sg1477
g5687
sg5373
g4006
sg4404
g4099
s(I7
I21
tp6208
g4158
s(I9
I25
tp6209
(dp6210
g1125
F10.0
ss(I7
I24
tp6211
g5836
sg2005
g1949
sg4546
g4459
s(I11
I20
tp6212
(dp6213
g1125
F6.0
ssg1966
g4640
s(I10
I35
tp6214
(dp6215
g1125
F7.0
ssg3182
g2544
s(I9
I33
tp6216
(dp6217
g1125
F10.0
ss(I11
I34
tp6218
g4794
sg4153
g4893
sg1940
g4978
s(I11
I33
tp6219
g6112
sg5192
g6141
s(I9
I1
tp6220
g5106
s(I8
I23
tp6221
(dp6222
g1125
F12.0
ss(I9
I22
tp6223
(dp6224
g1125
F8.0
ss(I10
I21
tp6225
(dp6226
g1125
F10.0
ss(I6
I24
tp6227
(dp6228
g1125
F6.0
ssg4109
g2987
s(I9
I28
tp6229
(dp6230
g1125
F9.0
ss(I6
I3
tp6231
(dp6232
g1125
F9.0
ss(I6
I22
tp6233
g5164
s(I5
I22
tp6234
(dp6235
g1125
F10.0
ssg3396
g2791
s(I4
I25
tp6236
(dp6237
g1125
F8.0
ss(I8
I34
tp6238
(dp6239
g1125
F13.0
ss(I11
I32
tp6240
g3362
ssg770
(dp6241
g3488
g3452
sg3031
g3516
sg1361
g1190
s(I9
I28
tp6242
(dp6243
g1125
F9.0
ssg5435
g5409
sg2835
g5509
sg3721
g1229
s(I12
I17
tp6244
g1241
s(I10
I27
tp6245
(dp6246
g1125
F6.0
ss(I5
I24
tp6247
g1333
sg1475
g3925
s(I10
I23
tp6248
(dp6249
g1125
F12.0
ssg1144
g2500
sg4124
g5717
sg4404
g4101
s(I7
I21
tp6250
g4159
s(I8
I28
tp6251
(dp6252
g1125
F8.0
ss(I9
I25
tp6253
(dp6254
g1125
F11.0
ssg1312
g5805
s(I7
I24
tp6255
g5837
sg2005
g1951
s(I6
I4
tp6256
(dp6257
g1125
F9.0
ss(I10
I4
tp6258
g5867
sg2155
g2093
sg4546
g4461
sg1487
g4579
sg1966
g4642
sg3182
g2546
s(I5
I23
tp6259
g4771
s(I8
I36
tp6260
(dp6261
g1125
F6.0
ssg1493
g4821
sg4153
g4895
sg4223
g4933
sg3396
g2793
sg5192
g6143
sg3980
g6181
s(I9
I1
tp6262
g5107
s(I8
I23
tp6263
(dp6264
g1125
F12.0
ss(I9
I22
tp6265
(dp6266
g1125
F9.0
ss(I5
I19
tp6267
(dp6268
g1125
F6.0
ss(I11
I23
tp6269
g5124
s(I10
I21
tp6270
(dp6271
g1125
F13.0
ss(I11
I24
tp6272
(dp6273
g1125
F7.0
ss(I5
I22
tp6274
(dp6275
g1125
F9.0
ssg3340
g3199
s(I8
I30
tp6276
(dp6277
g1125
F9.0
ss(I10
I28
tp6278
(dp6279
g1125
F8.0
ssg3442
g3400
ssg772
(dp6280
sg774
(dp6281
g1131
g3780
s(I5
I11
tp6282
g5611
s(I6
I4
tp6283
(dp6284
g1125
F9.0
ssg1419
g5922
s(I6
I6
tp6285
(dp6286
g1125
F6.0
sssg776
(dp6287
(I7
I24
tp6288
g5839
sg1487
g4583
s(I5
I22
tp6289
(dp6290
g1125
F6.0
sssg778
(dp6291
g18
g1217
s(I5
I8
tp6292
g3594
sg2835
g5516
sg1131
g3802
s(I8
I15
tp6293
(dp6294
g1125
F13.0
ss(I8
I21
tp6295
(dp6296
g1125
F6.0
ssg4255
g5638
s(I6
I14
tp6297
g1778
s(I6
I4
tp6298
(dp6299
g1125
F13.0
ssg3590
g4261
s(I7
I1
tp6300
(dp6301
g1125
F17.0
ssg4417
g4361
s(I9
I2
tp6302
(dp6303
g1125
F8.0
ssg1487
g4587
sg3272
g2387
sg1827
g4696
sg1922
g6005
s(I1
I14
tp6304
g6025
sg1718
g6036
s(I8
I16
tp6305
(dp6306
g1125
F10.0
ssg4447
g6098
s(I5
I3
tp6307
(dp6308
g1125
F30.0
ss(I6
I8
tp6309
(dp6310
g1125
F6.0
ss(I9
I12
tp6311
(dp6312
g1125
F10.0
ss(I5
I9
tp6313
g6286
sg2258
g5598
s(I6
I24
tp6314
(dp6315
g1125
F6.0
ssg5422
g5241
sg2923
g3248
sg5606
g5313
s(I10
I2
tp6316
(dp6317
g1125
F8.0
sssg780
(dp6318
(I1
I17
tp6319
(dp6320
g1125
F10.0
ssg2835
g5518
s(I7
I19
tp6321
(dp6322
g1125
F6.0
ss(I8
I21
tp6323
(dp6324
g1125
F8.0
ss(I4
I21
tp6325
(dp6326
g1125
F6.0
ssg1810
g4161
sg1771
g4661
sg1718
g6038
sg3685
g2853
s(I10
I21
tp6327
(dp6328
g1125
F7.0
sssg782
(dp6329
(I6
I10
tp6330
(dp6331
g1125
F8.0
ss(I4
I10
tp6332
g5600
sg4417
g4363
sg3272
g2389
s(I7
I14
tp6333
g6099
s(I6
I24
tp6334
(dp6335
g1125
F7.0
ssg1597
g3101
sg5606
g5316
ssg784
(dp6336
g1361
g1197
sg2835
g5520
s(I7
I19
tp6337
(dp6338
g1125
F7.0
ss(I8
I15
tp6339
(dp6340
g1125
F12.0
ss(I8
I21
tp6341
(dp6342
g1125
F17.0
ssg1878
g1446
sg2840
g5660
sg1383
g1594
sg4225
g6204
sg1389
g4050
sg1810
g4163
s(I9
I25
tp6343
(dp6344
g1125
F11.0
ssg2892
g2035
sg4546
g4469
s(I11
I20
tp6345
(dp6346
g1125
F6.0
ssg1421
g5970
sg2849
g4779
s(I6
I24
tp6347
(dp6348
g1125
F6.0
ssg1932
g2673
sg5192
g6152
sg1183
g5058
sg1240
g6268
s(I8
I23
tp6349
(dp6350
g1125
F8.0
ss(I9
I22
tp6351
(dp6352
g1125
F6.0
ssg2854
g2916
sg3104
g2950
sg1597
g3103
s(I5
I22
tp6353
(dp6354
g1125
F7.0
ssg5279
g3220
sg5428
g5276
ssg786
(dp6355
g1287
g3571
sg1126
g3621
sg5435
g5398
sg1128
g3693
sg2835
g5522
sg6057
(dp6356
g1125
F6.0
ssg1131
g3825
sg1135
g1272
s(I8
I21
tp6357
(dp6358
g1125
F26.0
ssg2268
g1502
sg1142
g3983
sg5373
g4010
sg1383
g1596
sg1387
g1661
sg5080
g4067
sg1810
g4166
sg2277
g1727
s(I9
I25
tp6359
(dp6360
g1125
F8.0
ssg2889
g1782
sg1812
g5845
sg2406
g4244
s(I1
I38
tp6361
(dp6362
g1125
F6.0
ss(I8
I25
tp6363
g1960
s(I1
I19
tp6364
g5878
sg1160
g2593
sg4546
g4473
sg2158
g2339
sg1487
g4594
sg1912
g5907
s(I8
I23
tp6365
(dp6366
g1125
F10.0
ssg1966
g4648
sg1144
g2508
sg1168
g4720
s(I8
I29
tp6367
g4826
sg1932
g2675
sg4153
g4901
s(I8
I16
tp6368
(dp6369
g1125
F6.0
ssg6198
g6069
sg1433
g2731
sg3396
g2799
sg1177
(dp6370
g1125
F6.0
ssg2854
g2918
sg1497
g5011
sg3980
g6187
sg3361
g6228
s(I1
I18
tp6371
g2851
sg1777
g6315
s(I9
I22
tp6372
(dp6373
g1125
F14.0
ssg5599
g6335
s(I5
I19
tp6374
g6348
sg3104
g2944
s(I5
I22
tp6375
(dp6376
g1125
F10.0
ssg1451
(dp6377
g1125
F6.0
ss(I8
I30
tp6378
(dp6379
g1125
F7.0
ss(I4
I25
tp6380
(dp6381
g1125
F6.0
ssg5428
g5269
sg1212
g3330
s(I8
I34
tp6382
(dp6383
g1125
F6.0
ssg3213
g3364
sg3442
g3408
ssg788
(dp6384
(I7
I24
tp6385
g5846
sg2005
g1963
sg5192
g6155
s(I7
I23
tp6386
g5195
ssg790
(dp6387
sg792
(dp6388
g5435
g5430
sg30
g1242
s(I8
I35
tp6389
g4106
sg2538
g2205
s(I8
I36
tp6390
(dp6391
g1125
F7.0
ss(I9
I33
tp6392
(dp6393
g1125
F17.0
ss(I8
I23
tp6394
(dp6395
g1125
F7.0
ss(I10
I22
tp6396
g3208
ssg794
(dp6397
g3633
g5767
sg3590
g4263
sg1487
g4598
sg1827
g4698
sg2864
(dp6398
g1125
F6.0
sssg796
(dp6399
g5435
g5362
sg2835
g5524
s(I7
I22
tp6400
g1504
sg1170
g4180
s(I9
I25
tp6401
(dp6402
g1125
F9.0
ssg1312
g5809
sg2005
g1865
sg2538
g2113
s(I8
I22
tp6403
g4476
s(I9
I23
tp6404
g4508
sg1421
g5976
s(I9
I33
tp6405
(dp6406
g1125
F6.0
ssg3396
g2741
sg1497
g4985
sg5192
g6120
sg3361
g6230
sg1240
g6243
s(I10
I33
tp6407
(dp6408
g1125
F6.0
ss(I8
I23
tp6409
(dp6410
g1125
F9.0
ss(I9
I22
tp6411
(dp6412
g1125
F19.0
ssg4153
g4837
s(I5
I22
tp6413
(dp6414
g1125
F6.0
ss(I7
I23
tp6415
g5178
sg1342
g5216
s(I8
I30
tp6416
(dp6417
g1125
F11.0
ss(I4
I25
tp6418
(dp6419
g1125
F7.0
ss(I9
I31
tp6420
(dp6421
g1125
F6.0
ss(I8
I34
tp6422
(dp6423
g1125
F9.0
sssg798
(dp6424
g1287
g3575
sg5435
g5418
sg2835
g5443
sg1131
g3831
s(I10
I23
tp6425
(dp6426
g1125
F11.0
ss(I7
I22
tp6427
g1474
s(I10
I25
tp6428
(dp6429
g1125
F8.0
ssg4124
g5725
sg4404
g4075
sg1342
g5218
s(I9
I25
tp6430
(dp6431
g1125
F6.0
ss(I10
I30
tp6432
(dp6433
g1125
F9.0
ss(I8
I32
tp6434
g5810
sg2538
g2124
sg4546
g4482
sg1487
g4515
s(I9
I33
tp6435
(dp6436
g1125
F7.0
ss(I4
I24
tp6437
g2680
sg4153
g4843
sg4223
g4937
sg1495
g4965
sg3396
g2803
sg5192
g6122
s(I10
I35
tp6438
(dp6439
g1125
F9.0
ssg1240
g6246
s(I8
I23
tp6440
(dp6441
g1125
F14.0
ss(I9
I22
tp6442
(dp6443
g1125
F13.0
ss(I10
I21
tp6444
(dp6445
g1125
F6.0
ss(I10
I22
tp6446
g3206
s(I8
I30
tp6447
(dp6448
g1125
F8.0
ss(I4
I25
tp6449
(dp6450
g1125
F6.0
ss(I8
I34
tp6451
(dp6452
g1125
F8.0
ssg1475
g3933
ssg800
(dp6453
(I11
I11
tp6454
(dp6455
g1125
F9.0
ssg2835
g5528
sg1131
g3837
s(I8
I21
tp6456
(dp6457
g1125
F7.0
ssg1383
g1600
sg2998
g1611
sg1389
g4054
s(I5
I17
tp6458
(dp6459
g1125
F8.0
ssg1421
g5981
sg5512
g5113
sg1597
g3113
sg5428
g5278
ssg802
(dp6460
sg804
(dp6461
sg806
(dp6462
g1135
g1252
s(I2
I31
tp6463
(dp6464
g1125
F6.0
sssg808
(dp6465
g1135
g1278
sg1142
g3989
s(I2
I29
tp6466
(dp6467
g1125
F6.0
ssg1358
g4736
s(I10
I33
tp6468
(dp6469
g1125
F8.0
ss(I1
I24
tp6470
g6464
s(I4
I25
tp6471
(dp6472
g1125
F7.0
sssg810
(dp6473
(I8
I24
tp6474
g5421
sg1135
g1280
s(I6
I23
tp6475
g1452
sg1358
g4738
s(I6
I24
tp6476
g6377
ssg812
(dp6477
g1361
g1211
sg1503
g6419
s(I8
I24
tp6478
g5425
sg1473
g6450
s(I10
I35
tp6479
(dp6480
g1125
F8.0
ss(I8
I21
tp6481
(dp6482
g1125
F6.0
ssg1624
g1345
sg1878
g1454
s(I7
I22
tp6483
g1508
s(I7
I35
tp6484
g5667
sg1142
g3991
sg2005
g1973
s(I7
I21
tp6485
g4171
sg1812
g5851
sg2538
g2209
sg4546
g4425
sg1487
g4606
s(I2
I29
tp6486
(dp6487
g1125
F6.0
ssg1144
g2520
sg2849
g4759
s(I4
I33
tp6488
(dp6489
g1125
F8.0
ss(I1
I25
tp6490
g2594
sg1493
g4832
sg4153
g4914
sg5192
g6162
s(I8
I34
tp6491
(dp6492
g1125
F10.0
ssg3980
g6191
sg3361
g6237
sg1959
g6381
s(I8
I23
tp6493
(dp6494
g1125
F8.0
ss(I9
I22
tp6495
(dp6496
g1125
F8.0
ssg3396
g2809
sg5616
g5168
s(I5
I22
tp6497
(dp6498
g1125
F6.0
ss(I7
I23
tp6499
g5188
s(I2
I31
tp6500
g6472
s(I8
I30
tp6501
(dp6502
g1125
F6.0
ss(I10
I28
tp6503
(dp6504
g1125
F9.0
ssg3442
g3414
ssg814
(dp6505
sg816
(dp6506
sg818
(dp6507
(I1
I17
tp6508
(dp6509
g1125
F9.0
ssg1128
g3705
sg2835
g5537
s(I8
I21
tp6510
(dp6511
g1125
F26.0
ss(I6
I23
tp6512
g1460
sg1387
g1671
sg1389
g4056
sg82
g1694
s(I9
I25
tp6513
(dp6514
g1125
F6.0
ssg1812
g5854
sg2892
g2045
sg4546
g4497
sg1487
g4612
sg1421
g5983
sg1932
g2692
sg6198
g6073
sg4447
g6101
s(I10
I21
tp6515
(dp6516
g1125
F6.0
ss(I5
I22
tp6517
(dp6518
g1125
F6.0
sssg820
(dp6519
sg822
(dp6520
(I7
I25
tp6521
g1138
sg1287
g3585
sg5435
g5405
sg1477
g5698
sg3162
g5748
s(I7
I21
tp6522
g4174
s(I8
I28
tp6523
(dp6524
g1125
F15.0
ssg3963
g5759
s(I10
I30
tp6525
(dp6526
g1125
F14.0
ssg1312
g5816
sg1812
g5834
sg4124
g5728
sg2005
g1945
sg2538
g2127
sg1713
g4328
sg4546
g4419
sg1342
g5224
s(I9
I23
tp6527
g4613
sg1966
g4652
sg1144
g2522
s(I4
I33
tp6528
(dp6529
g1125
F11.0
ss(I8
I36
tp6530
(dp6531
g1125
F6.0
ss(I9
I33
tp6532
(dp6533
g1125
F22.0
ssg1959
g6383
sg1493
g4834
sg1932
g2667
sg4153
g4867
sg4223
g4941
sg1495
g4969
sg3396
g2817
sg1473
g6452
s(I11
I33
tp6534
g6116
sg5192
g6130
sg3980
g6193
s(I8
I43
tp6535
(dp6536
g1125
F7.0
ssg3361
g6239
sg4464
g5093
s(I9
I1
tp6537
g5114
s(I8
I23
tp6538
(dp6539
g1125
F26.0
ss(I9
I22
tp6540
(dp6541
g1125
F8.0
ssg1503
g6423
s(I5
I22
tp6542
(dp6543
g1125
F7.0
ss(I7
I23
tp6544
g5197
s(I8
I30
tp6545
(dp6546
g1125
F25.0
ssg1507
g6492
s(I9
I31
tp6547
(dp6548
g1125
F6.0
ss(I10
I28
tp6549
(dp6550
g1125
F12.0
ssg3442
g3416
ssg824
(dp6551
sg826
(dp6552
sg828
(dp6553
g1713
g4336
s(I4
I33
tp6554
(dp6555
g1125
F6.0
ss(I8
I36
tp6556
(dp6557
g1125
F6.0
ss(I9
I33
tp6558
(dp6559
g1125
F7.0
ssg5192
g6146
ssg830
(dp6560
sg832
(dp6561
sg834
(dp6562
(I6
I4
tp6563
(dp6564
g1125
F9.0
ssg3590
g4267
sg1827
g4700
sg1777
g6317
s(I6
I3
tp6565
(dp6566
g1125
F19.0
sssg836
(dp6567
(I11
I18
tp6568
g6455
s(I11
I17
tp6569
(dp6570
g1125
F8.0
sssg838
(dp6571
sg840
(dp6572
sg842
(dp6573
g1131
g3715
sg2840
g5643
s(I3
I18
tp6574
(dp6575
g1125
F6.0
ssg1816
(dp6576
g1125
F7.0
ssg2158
g2251
sg1423
(dp6577
g1125
F6.0
ssg1433
g2701
sg1183
g5029
s(I4
I18
tp6578
g6320
sg1459
g6509
ssg844
(dp6579
sg846
(dp6580
(I6
I23
tp6581
g1363
sg1168
g4704
sg1932
g2611
ssg848
(dp6582
sg850
(dp6583
sg852
(dp6584
sg854
(dp6585
sg856
(dp6586
g3644
g3628
s(I7
I6
tp6587
g3710
s(I8
I15
tp6588
(dp6589
g1125
F9.0
ssg2268
g1468
s(I6
I4
tp6590
(dp6591
g1125
F6.0
ssg3590
g4252
sg3272
g2374
s(I6
I15
tp6592
g6058
sg5599
g6331
s(I6
I24
tp6593
g6356
sg1964
g2994
ssg858
(dp6594
sg860
(dp6595
sg862
(dp6596
sg864
(dp6597
g1128
g3652
sg2835
g5439
sg1131
g3723
s(I8
I15
tp6598
(dp6599
g1125
F6.0
ssg1878
g1372
sg2840
g5645
sg1385
(dp6600
g1125
F8.0
ssg1810
g4119
s(I9
I25
tp6601
(dp6602
g1125
F8.0
ssg1812
g5819
sg2892
g1996
sg4546
g4380
sg1489
g2398
sg2849
g4744
s(I5
I16
tp6603
g5033
sg6578
g6322
sg6374
g6338
sg5847
g5180
sg1212
g3295
ssg866
(dp6604
sg868
(dp6605
sg870
(dp6606
sg872
(dp6607
(I7
I25
tp6608
g1167
sg1287
g3547
sg1473
g6439
sg1144
g2474
sg1477
g5678
sg3162
g5741
s(I10
I30
tp6609
(dp6610
g1125
F14.0
ssg4124
g5715
s(I9
I33
tp6611
(dp6612
g1125
F23.0
ss(I9
I23
tp6613
g4516
sg3396
g2767
sg5192
g6139
sg3361
g6215
s(I10
I22
tp6614
g3197
s(I8
I30
tp6615
(dp6616
g1125
F7.0
ssg1507
g6480
s(I10
I28
tp6617
(dp6618
g1125
F7.0
sssg874
(dp6619
(I8
I24
tp6620
g5367
sg2835
g5445
sg6057
g6589
sg1131
g3729
sg4743
g6599
s(I8
I21
tp6621
(dp6622
g1125
F18.0
ssg1383
g1542
sg1387
g1621
sg1389
g4021
s(I9
I25
tp6623
(dp6624
g1125
F6.0
ss(I8
I25
tp6625
g1873
sg2892
g1998
s(I5
I17
tp6626
(dp6627
g1125
F23.0
ssg2711
g2051
sg1818
g4286
sg4546
g4382
sg1487
g4518
sg1489
g2400
sg1421
g5949
sg1922
g5987
s(I6
I17
tp6628
(dp6629
g1125
F6.0
ssg1718
g6028
sg5160
g6041
sg1183
g5035
s(I8
I23
tp6630
(dp6631
g1125
F13.0
ssg1777
g6294
s(I9
I22
tp6632
(dp6633
g1125
F8.0
ssg2854
g2878
sg6374
g6340
sg1597
g3042
sg5422
g5235
sg3120
g3267
sg1212
g3297
ssg876
(dp6634
sg878
(dp6635
sg880
(dp6636
g4507
g3469
sg2835
g5447
sg1131
g3731
sg1387
g1623
s(I5
I17
tp6637
(dp6638
g1125
F6.0
ss(I8
I22
tp6639
g4384
s(I9
I22
tp6640
(dp6641
g1125
F6.0
ss(I8
I20
tp6642
g3044
ssg882
(dp6643
(I8
I22
tp6644
g4388
ssg884
(dp6645
g5148
g5347
sg1126
g3602
sg5435
g5369
sg1128
g3656
sg1131
g3735
sg1471
g3850
s(I12
I28
tp6646
g5569
sg1872
g6622
sg4385
g5614
sg1624
g1298
s(I4
I16
tp6647
g5619
sg1475
g3896
s(I9
I16
tp6648
(dp6649
g1125
F6.0
ssg1878
g1374
s(I3
I12
tp6650
(dp6651
g1125
F7.0
ssg5373
g3998
sg6574
(dp6652
g1125
F10.0
ssg1383
g1544
s(I4
I21
tp6653
(dp6654
g1125
F7.0
ssg1389
g4023
sg1810
g4121
sg82
g1686
sg2277
g1706
s(I10
I3
tp6655
g4217
s(I9
I25
tp6656
(dp6657
g1125
F11.0
ssg2889
g1758
sg2379
g1805
sg1312
g5778
sg1812
g5821
sg2406
g4235
s(I8
I6
tp6658
g5858
s(I8
I25
tp6659
g1876
s(I6
I4
tp6660
(dp6661
g1125
F10.0
ss(I5
I17
tp6662
(dp6663
g1125
F22.0
ssg1818
g4288
sg6364
g5876
s(I12
I29
tp6664
g2128
sg1902
g2222
sg4417
g4343
sg2158
g2261
sg1487
g4520
sg3272
g2376
sg1912
g5890
sg1489
g2402
s(I11
I20
tp6665
(dp6666
g1125
F17.0
ssg1419
g5913
sg5606
g5295
s(I3
I21
tp6667
g4676
sg1421
g5951
sg1168
g4708
sg1922
g5989
sg2849
g4746
sg1959
g6358
sg5160
g6043
sg1932
g2619
s(I8
I16
tp6668
(dp6669
g1125
F12.0
ss(I6
I15
tp6670
g6059
sg1459
g6511
sg4447
g6085
sg1433
g2705
s(I11
I17
tp6671
(dp6672
g1125
F6.0
ss(I9
I6
tp6673
g2826
sg5192
g6124
sg1183
g5039
s(I7
I13
tp6674
(dp6675
g1125
F9.0
ssg3685
g2839
s(I9
I1
tp6676
g5097
s(I8
I23
tp6677
(dp6678
g1125
F7.0
ssg1777
g6296
sg6578
g6324
sg2854
g2880
sg6374
g6342
sg1957
g5120
sg3104
g2936
s(I11
I24
tp6679
(dp6680
g1125
F6.0
ss(I6
I3
tp6681
(dp6682
g1125
F10.0
ss(I4
I23
tp6683
(dp6684
g1125
F7.0
ssg5616
g5153
s(I5
I22
tp6685
(dp6686
g1125
F10.0
ssg6568
g6457
sg5847
g5182
sg2352
g3228
s(I8
I30
tp6687
(dp6688
g1125
F9.0
ssg2923
g3240
sg1507
g6482
sg5428
g5251
sg1212
g3301
ssg886
(dp6689
sg888
(dp6690
(I8
I24
tp6691
g5370
sg2835
g5451
sg1131
g3739
sg1705
g6649
sg1383
g1548
sg1387
g1628
sg1810
g4176
s(I9
I25
tp6692
(dp6693
g1125
F6.0
ss(I8
I25
tp6694
g1982
sg2892
g2000
sg4546
g4390
sg2158
g2263
s(I9
I11
tp6695
(dp6696
g1125
F6.0
ssg4153
g4846
s(I8
I23
tp6697
(dp6698
g1125
F6.0
ss(I9
I22
tp6699
(dp6700
g1125
F7.0
ss(I10
I21
tp6701
(dp6702
g1125
F8.0
ss(I8
I20
tp6703
g3049
s(I6
I3
tp6704
(dp6705
g1125
F7.0
ss(I3
I13
tp6706
g3229
ssg890
(dp6707
sg892
(dp6708
g4507
g3471
sg3031
g3502
sg1287
g3533
sg2835
g5455
sg1131
g3743
sg1874
g3872
sg1879
g3950
s(I10
I25
tp6709
(dp6710
g1125
F14.0
ssg1383
g1551
sg1387
g1631
s(I7
I21
tp6711
g4123
s(I9
I25
tp6712
(dp6713
g1125
F7.0
ss(I11
I31
tp6714
(dp6715
g1125
F7.0
ssg2005
g1882
sg2892
g2002
s(I5
I17
tp6716
(dp6717
g1125
F6.0
ssg2711
g2053
sg2538
g2134
sg4546
g4394
sg2158
g2267
sg1487
g4524
sg1912
g5892
s(I11
I20
tp6718
(dp6719
g1125
F7.0
ssg5488
g4618
sg1966
g4630
sg3181
g2449
sg3182
g2531
sg1926
g2561
sg1493
g4805
sg1932
g2621
sg1240
g6249
sg5512
g5099
sg2854
g2884
s(I10
I21
tp6720
(dp6721
g1125
F7.0
ssg4109
g2965
sg1473
g6426
sg5431
(dp6722
g1125
F6.0
sssg894
(dp6723
sg896
(dp6724
sg898
(dp6725
g5571
g5324
sg2258
g5574
sg1705
g6651
sg2158
g2270
ssg900
(dp6726
(I1
I15
tp6727
g1708
sg2379
g1809
s(I1
I14
tp6728
g6018
sg5606
g5299
ssg902
(dp6729
sg904
(dp6730
sg906
(dp6731
(I5
I17
tp6732
(dp6733
g1125
F10.0
ssg5160
g6045
sg1964
g2997
sg1597
g3051
sg5606
g5301
ssg908
(dp6734
(I1
I17
tp6735
g6575
sg1705
g6652
ssg910
(dp6736
g1351
g5627
sg1312
g5781
sg1358
g4731
sg4732
g2597
s(I1
I35
tp6737
(dp6738
g1125
F6.0
ssg1959
g6362
s(I2
I35
tp6739
(dp6740
g1125
F9.0
sssg912
(dp6741
g1131
g3746
s(I7
I19
tp6742
g6600
s(I6
I23
tp6743
g1386
s(I6
I16
tp6744
g4025
s(I8
I22
tp6745
g4401
s(I3
I16
tp6746
g6054
sg1433
g2708
sg1183
g5041
ssg914
(dp6747
g2835
g5461
sg1131
g3748
sg1705
g6654
s(I7
I24
tp6748
g5822
sg4546
g4403
sg2158
g2274
sg2849
g4750
sg1932
g2625
s(I1
I18
tp6749
g2843
s(I8
I23
tp6750
(dp6751
g1125
F7.0
ssg6578
g6326
ssg916
(dp6752
g6080
g5771
ssg918
(dp6753
(I4
I10
tp6754
g5576
s(I6
I4
tp6755
(dp6756
g1125
F8.0
ssg4417
g4345
sg4426
g5937
ssg920
(dp6757
sg922
(dp6758
sg924
(dp6759
sg926
(dp6760
sg928
(dp6761
(I9
I21
tp6762
g5465
s(I8
I36
tp6763
(dp6764
g1125
F7.0
ss(I9
I33
tp6765
(dp6766
g1125
F7.0
sssg930
(dp6767
(I7
I25
tp6768
g1153
sg5435
g5377
sg1131
g3755
sg1624
g1311
sg1477
g5672
sg4404
g4079
sg1312
g5783
sg2005
g1894
sg2538
g2148
sg4546
g4406
sg1487
g4529
s(I9
I25
tp6769
(dp6770
g1125
F9.0
ssg4153
g4858
sg3396
g2755
sg5192
g6126
sg1240
g6252
s(I8
I23
tp6771
(dp6772
g1125
F13.0
ss(I9
I22
tp6773
(dp6774
g1125
F6.0
ss(I8
I30
tp6775
(dp6776
g1125
F10.0
ssg1137
g6524
ssg932
(dp6777
g3488
g3429
sg3031
g3504
sg1361
g1155
sg1503
g6402
sg1128
g3665
sg2835
g5468
sg1131
g3757
sg4743
g6602
sg1872
g6624
sg1705
g6657
sg1981
g6693
sg3980
g6175
sg1878
g1398
sg4122
g6713
sg3340
g3167
sg1477
g5693
sg5373
g4002
sg4124
g5706
sg1383
g1556
sg3162
g5732
sg1152
g6770
s(I11
I31
tp6778
(dp6779
g1125
F7.0
ssg1312
g5785
s(I5
I17
tp6780
(dp6781
g1125
F6.0
ssg2538
g2150
sg1713
g4312
sg4546
g4408
sg1342
g5208
sg2158
g2281
sg1487
g4531
sg3438
(dp6782
g1125
F7.0
ssg3181
g2451
sg1144
g2484
sg1922
g5991
sg2849
g4752
sg1170
g4190
sg1932
g2629
sg3396
g2757
sg1940
g4975
sg5192
g6157
sg3361
g6210
sg1240
g6254
s(I8
I23
tp6783
(dp6784
g1125
F11.0
ss(I9
I22
tp6785
(dp6786
g1125
F18.0
ssg2854
g2888
sg6374
g6344
sg1959
g6360
sg1473
g6431
s(I9
I17
tp6787
g3129
s(I8
I30
tp6788
(dp6789
g1125
F10.0
ssg2687
(dp6790
g1125
F7.0
ssg1212
g3305
s(I10
I28
tp6791
(dp6792
g1125
F9.0
ssg1459
g6514
sg3213
g3354
ssg934
(dp6793
g3488
g3431
sg1874
g3874
s(I7
I21
tp6794
g4128
sg1170
g4208
sg3182
g2537
sg1312
g5787
sg1487
g4533
sg3181
g2453
s(I9
I33
tp6795
(dp6796
g1125
F7.0
ssg1932
g2631
s(I9
I24
tp6797
g4859
sg3396
g2759
sg6534
g6107
sg5192
g6128
sg1166
g6610
s(I10
I33
tp6798
(dp6799
g1125
F10.0
ss(I9
I1
tp6800
g5100
sg1473
g6433
sg4109
g2975
s(I7
I23
tp6801
g5185
sg1342
g5210
sg1137
g6526
ssg936
(dp6802
g3488
g3433
sg4122
g6715
s(I7
I22
tp6803
g1480
sg4404
g4081
sg3128
g6779
s(I8
I32
tp6804
g5788
s(I8
I25
tp6805
g1895
sg4546
g4410
s(I9
I23
tp6806
g4534
s(I5
I23
tp6807
g4753
s(I9
I33
tp6808
(dp6809
g1125
F7.0
ssg3187
g4789
s(I8
I26
tp6810
g6166
sg3980
g6172
s(I10
I22
tp6811
g3168
sg3442
g3383
ssg938
(dp6812
sg940
(dp6813
sg942
(dp6814
sg944
(dp6815
(I7
I24
tp6816
g5825
s(I8
I23
tp6817
(dp6818
g1125
F9.0
sssg946
(dp6819
g5571
g5326
sg5148
g5349
sg2835
g5474
sg6587
g3712
sg6057
g6591
sg1131
g3764
sg2258
g5579
sg6282
g5609
sg1705
g6661
sg2840
g5649
sg5575
g6756
sg1389
g4031
sg82
g1689
sg4667
g1697
sg3058
g1736
sg5466
g4219
sg2379
g1815
sg1812
g5827
s(I7
I1
tp6820
(dp6821
g1125
F19.0
ssg1818
g4291
sg1902
g2225
sg5103
g2236
sg5865
(dp6822
g1125
F6.0
ssg1487
g4540
sg1912
g5895
sg5582
g4669
sg1827
g4688
sg2849
g4755
sg6304
g6020
s(I8
I10
tp6823
(dp6824
g1125
F8.0
ssg5160
g6047
sg4153
g4862
s(I8
I16
tp6825
(dp6826
g1125
F7.0
ssg4223
g4926
sg4447
g6087
sg1327
(dp6827
g1125
F6.0
ssg1183
g5043
sg5162
(dp6828
g1125
F6.0
ssg1240
g6257
s(I9
I12
tp6829
(dp6830
g1125
F9.0
ssg6313
g6284
s(I8
I23
tp6831
(dp6832
g1125
F7.0
ssg1777
g6299
s(I9
I22
tp6833
(dp6834
g1125
F6.0
ss(I3
I14
tp6835
(dp6836
g1125
F6.0
ss(I4
I9
tp6837
(dp6838
g1125
F15.0
ssg3107
g3020
sg1074
(dp6839
g1125
F12.0
ss(I4
I23
tp6840
(dp6841
g1125
F6.0
ss(I7
I10
tp6842
(dp6843
g1125
F11.0
ss(I2
I26
tp6844
g5137
sg5422
g5239
sg5606
g5303
s(I10
I2
tp6845
g6564
ssg948
(dp6846
(I8
I24
tp6847
g5382
s(I4
I24
tp6848
g2640
sg3396
g2763
s(I9
I24
tp6849
g4863
ssg950
(dp6850
g4844
g3885
sg1878
g1406
sg5466
g4221
s(I6
I4
tp6851
g6821
sg1827
g4690
sg1777
g6301
s(I6
I3
tp6852
(dp6853
g1125
F10.0
sssg952
(dp6854
g5571
g5329
sg4507
g3473
s(I1
I17
tp6855
g6576
sg1597
g3062
sg2835
g5476
sg4377
g5543
sg1872
g6627
sg3043
g6638
sg1705
g6663
sg1878
g1408
sg2840
g5651
sg4122
g6717
sg2268
g1482
s(I5
I14
tp6856
g6733
sg1383
g1564
sg1387
g1639
sg1389
g4034
sg1810
g4133
sg2277
g1712
sg2889
g1764
s(I7
I15
tp6857
g1817
s(I8
I6
tp6858
g5860
sg2538
g2154
sg4546
g4416
sg1487
g4542
sg1489
g2410
sg1419
g5916
sg1168
g4712
sg1922
g5994
sg1926
g2564
sg6304
g6022
sg4153
g4865
s(I8
I16
tp6859
(dp6860
g1125
F40.0
ssg6198
g6061
sg4447
g6089
sg4225
g6197
s(I1
I18
tp6861
g2846
s(I9
I12
tp6862
(dp6863
g1125
F9.0
ss(I8
I23
tp6864
(dp6865
g1125
F6.0
ss(I9
I22
tp6866
(dp6867
g1125
F10.0
ssg2854
g2894
s(I10
I21
tp6868
(dp6869
g1125
F6.0
ss(I7
I16
tp6870
g2938
sg1964
g3003
sg3128
g6781
s(I6
I3
tp6871
(dp6872
g1125
F6.0
ssg4908
g3131
s(I6
I22
tp6873
g5155
sg6568
g6459
s(I1
I13
tp6874
g3232
s(I8
I30
tp6875
(dp6876
g1125
F6.0
ssg5428
g5253
s(I11
I17
tp6877
(dp6878
g1125
F9.0
sssg954
(dp6879
(I2
I29
tp6880
(dp6881
g1125
F8.0
sssg956
(dp6882
sg958
(dp6883
g1361
g1159
sg5192
g6132
ssg960
(dp6884
g4153
g4884
sg1957
g5123
s(I10
I22
tp6885
g3190
ssg962
(dp6886
g2835
g5478
sg5512
g5102
ssg964
(dp6887
(I9
I33
tp6888
(dp6889
g1125
F6.0
sssg966
(dp6890
g2835
g5481
s(I6
I4
tp6891
g6822
s(I10
I4
tp6892
g5866
sg1487
g4545
sg1827
g4692
s(I8
I23
tp6893
(dp6894
g1125
F8.0
ssg1777
g6303
s(I10
I21
tp6895
(dp6896
g1125
F7.0
ss(I6
I3
tp6897
(dp6898
g1125
F9.0
sssg968
(dp6899
g1287
g3543
sg2835
g5483
sg1131
g3782
sg4377
g5546
sg1874
g3878
sg4122
g6710
s(I7
I22
tp6900
g1486
sg1810
g4137
sg1312
g5792
sg2538
g2199
sg4546
g4396
sg1487
g4548
s(I6
I20
tp6901
g5896
s(I11
I20
tp6902
(dp6903
g1125
F10.0
ssg1926
g2568
sg1932
g2623
sg4153
g4878
sg4223
g4929
s(I8
I26
tp6904
g6133
s(I9
I1
tp6905
g5104
s(I8
I23
tp6906
(dp6907
g1125
F6.0
ss(I9
I22
tp6908
(dp6909
g1125
F23.0
ss(I10
I21
tp6910
(dp6911
g1125
F13.0
ssg1473
g6429
sg3340
g3176
sg5847
g5191
sg1212
g3315
ssg970
(dp6912
(I9
I26
tp6913
g3439
s(I8
I24
tp6914
g5385
sg2835
g5487
sg1131
g3774
sg1705
g6666
sg1475
g3913
sg4122
g6719
s(I9
I25
tp6915
g6782
sg2005
g1916
sg2538
g2163
sg4417
g4349
sg1485
g6903
sg1487
g4552
s(I9
I24
tp6916
g4874
sg1433
g2717
sg1495
g4955
sg3361
g6213
s(I8
I23
tp6917
(dp6918
g1125
F7.0
ss(I9
I22
tp6919
(dp6920
g1125
F15.0
ssg6374
g6346
s(I6
I22
tp6921
g5156
sg3340
g3178
s(I7
I23
tp6922
g5189
ssg972
(dp6923
sg974
(dp6924
sg976
(dp6925
g1351
g5629
sg1142
g3973
s(I1
I33
tp6926
g1749
s(I5
I23
tp6927
g4761
sg1497
g4999
s(I1
I35
tp6928
(dp6929
g1125
F6.0
ss(I0
I26
tp6930
(dp6931
g1125
F6.0
sssg978
(dp6932
g1287
g3549
sg5435
g5387
sg1351
g5631
s(I1
I40
tp6933
g1357
sg6484
g5665
sg1477
g5676
s(I3
I33
tp6934
g6881
sg1791
g5884
s(I1
I39
tp6935
g3260
s(I4
I33
tp6936
(dp6937
g1125
F8.0
ss(I2
I13
tp6938
g6048
sg4153
g4876
s(I2
I39
tp6939
g6079
sg1497
g5001
sg1185
g5070
sg3969
g2365
sg5811
g5173
sg6500
g6467
sg1507
g6487
ssg980
(dp6940
sg982
(dp6941
(I12
I29
tp6942
g2167
sg5192
g6135
ssg984
(dp6943
sg986
(dp6944
sg988
(dp6945
sg990
(dp6946
sg992
(dp6947
(I1
I17
tp6948
g6577
s(I8
I24
tp6949
g5394
sg2835
g5500
sg1872
g6629
sg1475
g3917
s(I6
I23
tp6950
g1424
sg1383
g1576
sg1810
g4147
s(I1
I15
tp6951
g1717
sg2889
g1774
s(I8
I22
tp6952
g4433
sg1912
g5900
sg1421
g5956
s(I8
I23
tp6953
(dp6954
g1125
F6.0
ssg2854
g2902
s(I8
I20
tp6955
g3084
sg5616
g5159
sg3340
g3186
ssg994
(dp6956
g1356
g6937
s(I9
I24
tp6957
g4882
sg3396
g2771
sg1137
g6529
s(I9
I35
tp6958
g6555
sg1507
g6489
ssg996
(dp6959
g1312
g5796
sg1471
g3859
sg1137
g6531
sg5464
g6764
sg1932
g2655
sg6534
g6109
sg5192
g6137
sg1240
g6261
sg3401
(dp6960
g1125
F7.0
ssg4109
g2979
sg3207
g6391
sg3396
g2773
sg6958
g6557
ssg998
(dp6961
g5435
g5396
sg1128
g3680
sg1131
g3792
sg2840
g5653
s(I7
I15
tp6962
g1830
sg2158
g2311
sg2849
g4763
sg4447
g6092
sg1433
g2721
s(I7
I16
tp6963
g2942
sg5428
g5259
sg1212
g3321
ssg1000
(dp6964
g3031
g3512
sg1287
g3553
sg1166
g6612
sg1874
g3880
sg1137
g6533
sg3980
g6177
sg1477
g5680
sg4124
g5713
sg4404
g4089
sg5464
g6766
sg4127
g6796
sg1479
g6809
sg2005
g1905
sg2538
g2173
sg1713
g4322
s(I13
I34
tp6965
g6889
sg1487
g4560
sg3181
g2455
sg1144
g2496
sg3187
g4791
sg1495
g4957
sg3396
g2775
sg6534
g6111
sg3361
g6217
sg4464
g5083
sg6958
g6559
s(I9
I22
tp6966
(dp6967
g1125
F7.0
ssg3207
g6393
sg1503
g6406
sg1473
g6436
s(I5
I22
tp6968
(dp6969
g1125
F7.0
ssg4109
g2981
s(I8
I30
tp6970
(dp6971
g1125
F15.0
ss(I9
I31
tp6972
(dp6973
g1125
F10.0
ss(I10
I28
tp6974
(dp6975
g1125
F11.0
ssg3213
g3356
ssg1002
(dp6976
sg1004
(dp6977
sg1006
(dp6978
g2258
g5584
sg4255
g5636
sg6851
g6824
s(I8
I16
tp6979
(dp6980
g1125
F6.0
ssg5428
g5261
sg3120
g3276
sg3213
g3358
ssg1008
(dp6981
(I8
I24
tp6982
g5399
sg1981
g6696
s(I8
I22
tp6983
g4439
s(I8
I23
tp6984
(dp6985
g1125
F6.0
ssg3120
g3278
ssg1010
(dp6986
g5435
g5401
sg1128
g3682
sg2835
g5502
sg1131
g3796
sg1705
g6669
sg68
g1532
sg1387
g1651
sg1810
g4156
sg82
g1693
sg2277
g1721
sg1812
g5829
s(I8
I25
tp6987
g1937
sg6851
g6826
sg2892
g2021
sg1816
g6860
sg2711
g2061
sg4417
g4355
sg5479
g2243
sg4546
g4445
sg2158
g2325
sg1487
g4566
sg1489
g2426
sg1771
g4657
sg1421
g5958
sg1922
g5998
s(I8
I10
tp6988
g6980
sg5160
g6050
sg6198
g6063
sg2258
g5590
s(I2
I14
tp6989
(dp6990
g1125
F6.0
ssg1183
g5049
s(I9
I12
tp6991
(dp6992
g1125
F6.0
ss(I8
I23
tp6993
(dp6994
g1125
F11.0
ssg1777
g6306
s(I9
I22
tp6995
(dp6996
g1125
F7.0
ssg2854
g2906
s(I10
I21
tp6997
(dp6998
g1125
F7.0
ssg1959
g6369
sg1597
g3090
s(I7
I10
tp6999
(dp7000
g1125
F9.0
ss(I4
I9
tp7001
(dp7002
g1125
F6.0
ssg1212
g3322
s(I11
I17
tp7003
(dp7004
g1125
F6.0
ssg5606
g5309
ssg1012
(dp7005
sg1014
(dp7006
sg1016
(dp7007
(I10
I19
tp7008
g2065
ssg1018
(dp7009
g1624
g1328
s(I6
I4
tp7010
g6827
sg1168
g4715
sg1932
g2661
ssg1020
(dp7011
sg1022
(dp7012
(I7
I25
tp7013
g1178
s(I7
I24
tp7014
g5830
s(I5
I23
tp7015
g4766
s(I6
I24
tp7016
g6370
s(I5
I22
tp7017
(dp7018
g1125
F12.0
sssg1024
(dp7019
sg1026
(dp7020
(I7
I25
tp7021
g1182
sg2379
g1834
s(I8
I22
tp7022
g4453
sg2158
g2329
sg1718
g6034
sg1936
g6990
ssg1028
(dp7023
sg1030
(dp7024
g6858
g5862
sg1777
g6308
s(I5
I6
tp7025
g2865
s(I8
I1
tp7026
g6398
s(I4
I23
tp7027
(dp7028
g1125
F6.0
sssg1032
(dp7029
sg1034
(dp7030
(I1
I38
tp7031
g6738
sg4760
g6929
s(I2
I39
tp7032
g6082
ssg1036
(dp7033
g2258
g5592
sg3162
g5739
sg3272
g2385
sg5582
g4673
sg1183
g5055
sg5162
(dp7034
g1125
F6.0
ssg1777
g6310
sg4908
g3135
ssg1038
(dp7035
sg1040
(dp7036
sg1042
(dp7037
g3396
g2789
sg1137
g6536
ssg1044
(dp7038
g1131
g3811
sg2258
g5594
sg1705
g6675
s(I6
I4
tp7039
g6828
s(I6
I20
tp7040
g5903
sg1421
g5964
s(I6
I8
tp7041
g7034
s(I6
I22
tp7042
g5163
sg5428
g5267
ssg1046
(dp7043
sg1048
(dp7044
sg1050
(dp7045
g3488
g3454
sg1287
g3565
sg1144
g2502
sg4124
g5719
sg5080
g4063
sg4404
g4103
sg3963
g5761
sg4127
g6799
sg2005
g1899
s(I9
I43
tp7046
g4304
sg2538
g2189
s(I8
I36
tp7047
g6960
sg1932
g2669
sg1495
g4963
s(I8
I26
tp7048
g6144
sg4464
g5087
s(I8
I23
tp7049
(dp7050
g1125
F9.0
ssg1503
g6408
s(I5
I22
tp7051
(dp7052
g1125
F9.0
ssg4109
g2989
sg6500
g6469
s(I10
I28
tp7053
(dp7054
g1125
F9.0
ss(I8
I27
tp7055
g3402
ssg1052
(dp7056
sg1054
(dp7057
g2835
g5511
sg1131
g3816
sg2840
g5656
sg1383
g1586
sg6851
g6830
sg3590
g4259
sg2892
g2029
sg1816
g6863
sg4546
g4463
sg1487
g4581
sg1777
g6312
sg1936
g6992
sg4447
g6094
sg1597
g3097
ssg1056
(dp7058
sg1058
(dp7059
g3031
g3518
sg1361
g1192
sg1597
g3099
sg1126
g3617
sg5435
g5411
sg3644
g3637
sg1128
g3687
sg2835
g5514
sg1131
g3818
sg1471
g3861
sg2121
g5563
sg1473
g6441
sg1135
g1270
sg1872
g6631
sg2258
g5596
sg1705
g6678
sg1624
g1335
sg1878
g1440
sg2840
g5658
sg60
g1518
sg1477
g5689
sg5373
g4008
sg4124
g5721
sg1383
g1588
sg2842
g6751
sg3162
g5743
sg1387
g1657
sg1389
g4046
sg1152
g6772
sg1312
g5807
sg1812
g5841
sg5824
g6818
sg2005
g1954
sg6851
g6832
sg1816
g6865
sg2155
g2095
sg2538
g2191
sg4417
g4359
sg5865
g6894
sg4546
g4467
sg2158
g2333
sg1487
g4585
sg1489
g2434
sg3438
g6918
sg1419
g5924
sg4426
g5942
sg1144
g2504
sg1421
g5966
sg1168
g4718
sg1922
g6003
sg1423
g6954
sg2849
g4775
sg1926
g2580
sg1959
g6366
sg4438
g6985
sg1493
g4823
sg1932
g2671
sg1936
g6994
sg6198
g6067
sg4447
g6096
sg1433
g2723
sg3396
g2795
sg3980
g6183
sg1940
g4980
sg6534
g6114
sg1497
g5007
sg5192
g6148
sg1137
g6539
sg3361
g6222
sg1240
g6264
sg3401
g7050
sg2854
g2914
sg6374
g6350
sg2856
(dp7060
g1125
F8.0
ssg1485
g6907
sg1198
(dp7061
g1125
F8.0
ssg3207
g6395
sg3107
g3024
sg1966
g4646
sg1503
g6410
sg3128
g6784
s(I4
I23
tp7062
(dp7063
g1125
F6.0
ssg4908
g3137
sg5616
g5166
s(I5
I22
tp7064
(dp7065
g1125
F20.0
ss(I8
I30
tp7066
(dp7067
g1125
F12.0
ssg1507
g6494
sg5428
g5271
sg1212
g3325
s(I10
I28
tp7068
(dp7069
g1125
F12.0
ss(I12
I26
tp7070
(dp7071
g1125
F7.0
ssg1981
g6698
sg3442
g3406
ssg1060
(dp7072
sg1062
(dp7073
g3488
g3458
sg4507
g3483
sg3031
g3520
sg1361
g1194
sg1126
g3619
sg5435
g5414
sg1128
g3689
sg1131
g3820
sg4377
g5554
sg1471
g3863
sg2121
g5565
sg1872
g6633
sg3043
g6641
sg1624
g1337
sg1475
g3927
sg1981
g6700
sg1878
g1442
sg1477
g5691
sg4124
g5723
sg1383
g1590
sg4225
g6202
sg3162
g5745
sg1387
g1659
sg1389
g4048
sg1152
g6774
sg3128
g6786
sg1812
g5843
sg2005
g1956
sg6851
g6834
sg1816
g6867
sg2711
g2071
sg1818
g4301
sg2155
g2097
sg2538
g2193
sg2158
g2335
sg1485
g6909
sg1487
g4589
sg1489
g2436
sg3438
g6920
sg1144
g2506
sg1421
g5968
sg1922
g6007
sg2849
g4777
sg1926
g2582
s(I9
I33
tp7074
g6967
sg1170
g4200
sg1493
g4825
sg1932
g2686
sg4153
g4897
sg1936
g6996
sg4223
g4935
sg1433
g2725
sg3396
g2797
sg1940
g4982
sg1497
g5009
sg5192
g6150
sg3980
g6185
sg3361
g6224
sg1240
g6266
sg1959
g6373
s(I9
I1
tp7075
g5109
sg6374
g6352
sg1503
g6412
sg1473
g6443
sg4908
g3139
s(I5
I22
tp7076
(dp7077
g1125
F7.0
ss(I8
I30
tp7078
(dp7079
g1125
F8.0
ssg1507
g6496
sg5428
g5274
sg1212
g3327
sg1137
g6541
ssg1064
(dp7080
g4507
g3485
sg1287
g3569
s(I8
I24
tp7081
g5415
sg1128
g3691
sg1131
g3822
sg1475
g3929
sg1981
g6702
sg1878
g1448
sg4122
g6721
s(I10
I4
tp7082
g5869
sg1816
g6869
sg2711
g2073
sg2155
g2099
sg2538
g2197
sg5865
g6896
sg4546
g4471
sg2158
g2337
sg1485
g6911
sg1487
g4591
sg1912
g5905
sg1489
g2438
sg1419
g5926
sg4426
g5944
sg1421
g5972
sg3182
g2548
sg1922
g6009
sg4153
g4899
sg1936
g6998
sg1459
g6516
sg1433
g2729
sg3361
g6226
s(I1
I18
tp7083
g2857
sg1240
g6271
s(I8
I23
tp7084
g7060
sg6578
g6328
sg4109
g2985
sg1473
g6445
sg4908
g3141
sg3181
g2459
s(I11
I17
tp7085
(dp7086
g1125
F6.0
sssg1066
(dp7087
sg1068
(dp7088
g3031
g3522
s(I7
I25
tp7089
g1199
s(I8
I24
tp7090
g5416
s(I5
I18
tp7091
g3826
sg1705
g6680
s(I8
I25
tp7092
g1961
sg2538
g2201
sg4546
g4475
sg1487
g4596
sg1421
g5974
sg1932
g2677
sg4153
g4903
s(I8
I26
tp7093
g6153
sg1240
g6273
s(I8
I23
tp7094
g7061
sg3340
g3203
ssg1070
(dp7095
(I6
I4
tp7096
g6836
sg1597
g3106
s(I6
I3
tp7097
(dp7098
g1125
F8.0
sssg1072
(dp7099
g6851
g6838
sg1936
g7002
ssg1074
(dp7100
(I6
I4
tp7101
g6839
ssg1076
(dp7102
(I7
I15
tp7103
g1838
s(I2
I23
tp7104
g4245
ssg1078
(dp7105
g1351
g5622
s(I2
I28
tp7106
g3985
sg1358
g4734
sg4904
g5134
ssg1080
(dp7107
g1287
g3573
sg2835
g5526
sg1131
g3829
sg2258
g5602
sg1705
g6682
sg1475
g3931
sg1981
g6705
sg4255
g5640
sg3340
g3205
sg1810
g4168
s(I7
I1
tp7108
g6853
sg1816
g6872
sg2711
g2075
sg2155
g2101
sg4417
g4365
sg5865
g6898
sg2158
g2343
sg4426
g5946
sg3361
g6232
sg5512
g5111
sg6835
g7098
sg1212
g3333
sg6845
g6566
ssg1082
(dp7109
(I7
I25
tp7110
g1201
sg1128
g3695
sg2258
g5604
sg1705
g6684
sg6851
g6841
sg4546
g4480
sg2158
g2345
sg2864
g7028
sg3136
g7063
sg1212
g3335
ssg1084
(dp7111
g7031
g6740
ssg1086
(dp7112
g6851
g6843
sg1936
g7000
ssg1088
(dp7113
g1361
g1205
sg1503
g6414
sg1126
g3623
sg5435
g5420
sg1128
g3699
sg1131
g3835
sg3721
g1231
sg1471
g3865
sg1135
g1274
sg1705
g6686
sg1624
g1339
sg1142
g3987
sg1144
g2514
s(I1
I21
tp7114
g1682
sg1170
g4202
sg1342
g5220
sg3963
g5763
sg6364
g5880
sg4546
g4486
sg1137
g6543
sg2158
g2349
sg1487
g4602
sg1489
g2440
sg1421
g5979
sg2849
g4783
sg7074
g6969
sg1932
g2682
sg6198
g6071
sg1459
g6518
sg1177
g7018
sg1497
g5013
sg1185
g5072
sg3361
g6235
s(I1
I18
tp7115
g2858
sg1240
g6275
sg3401
g7052
sg5838
g6290
sg3136
g7065
sg5108
g7077
sg6374
g6354
sg1959
g6376
s(I8
I30
tp7116
(dp7117
g1125
F7.0
ssg1507
g6498
sg1212
g3339
ssg1090
(dp7118
sg1092
(dp7119
sg1094
(dp7120
sg1096
(dp7121
g1361
g1210
sg1287
g3579
sg1597
g3117
sg5435
g5424
s(I9
I21
tp7122
g5531
sg1131
g3841
sg2121
g5567
sg1473
g6448
sg1135
g1282
sg1705
g6688
sg1477
g5696
sg4404
g4113
sg1810
g4170
sg1170
g4206
sg1152
g6776
sg6926
g1747
sg1312
g5814
sg1812
g5849
sg2005
g1971
sg1816
g6876
sg1137
g6546
sg1713
g4332
sg4546
g4490
sg1487
g4604
sg7074
g6971
sg4153
g4912
sg1497
g5017
sg5192
g6160
s(I4
I29
tp7123
g5025
sg3980
g6189
sg1166
g6616
sg1240
g6277
sg1959
g6379
sg4464
g5089
sg3136
g7067
sg5108
g7079
sg1503
g6417
sg3128
g6789
sg3396
g2807
sg1338
g7117
s(I8
I30
tp7124
(dp7125
g1125
F7.0
ssg1507
g6502
s(I10
I28
tp7126
(dp7127
g1125
F11.0
ssg3442
g3412
s(I4
I30
tp7128
(dp7129
g1125
F9.0
sssg1098
(dp7130
g3488
g3460
sg1287
g3581
sg5435
g5427
sg2835
g5533
sg4404
g4114
s(I9
I25
tp7131
g6790
sg2005
g1975
s(I8
I22
tp7132
g4491
sg7074
g6973
s(I4
I24
tp7133
g2688
s(I9
I24
tp7134
g4915
sg3396
g2811
s(I8
I26
tp7135
g6163
sg4464
g5091
sg1503
g6421
s(I7
I23
tp7136
g5196
s(I9
I31
tp7137
(dp7138
g1125
F7.0
ssg1137
g6548
s(I4
I30
tp7139
(dp7140
g1125
F8.0
sssg1100
(dp7141
g3488
g3462
s(I8
I24
tp7142
g5432
sg2835
g5535
sg1131
g3845
sg1166
g6618
s(I10
I23
tp7143
g6722
s(I9
I30
tp7144
g5726
sg1342
g5222
sg3128
g6792
s(I7
I24
tp7145
g5852
sg2005
g1980
sg2155
g2105
sg2538
g2215
sg1713
g4334
sg7074
g6975
sg4546
g4495
sg1487
g4610
sg3182
g2552
sg4153
g4919
sg3396
g2815
sg5192
g6165
sg1240
g6279
sg3401
g7054
sg3136
g7069
sg3340
g3212
sg5530
g7127
sg1507
g6504
sg1137
g6550
sg1475
g3941
ssg1102
(dp7146
(I11
I11
tp7147
g6570
sg1287
g3583
sg2835
g5539
sg1131
g3847
sg1705
g6672
s(I12
I27
tp7148
g5754
sg1816
g6878
sg2711
g2079
sg1936
g7004
sg6198
g6075
s(I10
I21
tp7149
g7086
sg5428
g5281
s(I11
I12
tp7150
g5284
ssg1104
(dp7151
g1135
g1284
sg4760
g6931
ssg1106
(dp7152
(I8
I23
tp7153
g7071
sg2005
g1952
sg1475
g3943
sg4546
g4501
ssg1108
(dp7154
sg1110
(dp7155
sg1112
(dp7156
g1624
g1348
s(I7
I24
tp7157
g5856
sg1497
g5019
ssg1114
(dp7158
g1287
g3587
s(I7
I30
tp7159
g5075
sg5530
g7129
sg2687
g7140
sg4223
g4943
sssS'graph'
p7160
(dp7161
sS'node_dict_factory'
p7162
c__builtin__
dict
p7163
sS'adjlist_dict_factory'
p7164
g7163
sS'adj'
p7165
g1117
sS'edge_attr_dict_factory'
p7166
g7163
sb.